Archive member included because of file (symbol)

build/sky/contiki-ng-sky.a(uart1-putchar.o)
                              udp-client.o (putchar)
build/sky/contiki-ng-sky.a(platform.o)
                              build/sky/obj/contiki-main.o (platform_init_stage_one)
build/sky/contiki-ng-sky.a(msp430.o)
                              build/sky/contiki-ng-sky.a(platform.o) (msp430_dco_required)
build/sky/contiki-ng-sky.a(clock.o)
                              build/sky/obj/contiki-main.o (clock_init)
build/sky/contiki-ng-sky.a(leds.o)
                              build/sky/contiki-ng-sky.a(platform.o) (leds_init)
build/sky/contiki-ng-sky.a(leds-arch.o)
                              build/sky/contiki-ng-sky.a(leds.o) (leds_arch_init)
build/sky/contiki-ng-sky.a(watchdog.o)
                              build/sky/obj/contiki-main.o (watchdog_start)
build/sky/contiki-ng-sky.a(autostart.o)
                              build/sky/obj/contiki-main.o (autostart_start)
build/sky/contiki-ng-sky.a(ctimer.o)
                              build/sky/obj/contiki-main.o (ctimer_init)
build/sky/contiki-ng-sky.a(energest.o)
                              build/sky/obj/contiki-main.o (energest_init)
build/sky/contiki-ng-sky.a(etimer.o)
                              build/sky/contiki-ng-sky.a(clock.o) (etimer_request_poll)
build/sky/contiki-ng-sky.a(log.o)
                              udp-client.o (log_6addr)
build/sky/contiki-ng-sky.a(node-id.o)
                              build/sky/obj/contiki-main.o (node_id_init)
build/sky/contiki-ng-sky.a(process.o)
                              build/sky/contiki-ng-sky.a(ctimer.o) (process_current)
build/sky/contiki-ng-sky.a(rtimer.o)
                              build/sky/obj/contiki-main.o (rtimer_init)
build/sky/contiki-ng-sky.a(timer.o)
                              build/sky/contiki-ng-sky.a(platform.o) (timer_set)
build/sky/contiki-ng-sky.a(list.o)
                              build/sky/contiki-ng-sky.a(ctimer.o) (list_init)
build/sky/contiki-ng-sky.a(random.o)
                              build/sky/contiki-ng-sky.a(platform.o) (random_init)
build/sky/contiki-ng-sky.a(linkaddr.o)
                              build/sky/contiki-ng-sky.a(platform.o) (linkaddr_copy)
build/sky/contiki-ng-sky.a(netstack.o)
                              build/sky/obj/contiki-main.o (netstack_init)
build/sky/contiki-ng-sky.a(queuebuf.o)
                              build/sky/obj/contiki-main.o (queuebuf_init)
build/sky/contiki-ng-sky.a(csma.o)
                              build/sky/obj/contiki-main.o (csma_driver)
build/sky/contiki-ng-sky.a(csma-output.o)
                              build/sky/contiki-ng-sky.a(csma.o) (csma_output_packet)
build/sky/contiki-ng-sky.a(csma-security.o)
                              build/sky/contiki-ng-sky.a(csma-output.o) (csma_security_create_frame)
build/sky/contiki-ng-sky.a(sicslowpan.o)
                              build/sky/obj/contiki-main.o (sicslowpan_driver)
build/sky/contiki-ng-sky.a(simple-udp.o)
                              udp-client.o (simple_udp_sendto)
build/sky/contiki-ng-sky.a(tcpip.o)
                              build/sky/contiki-ng-sky.a(simple-udp.o) (udp_new)
build/sky/contiki-ng-sky.a(uip6.o)
                              build/sky/contiki-ng-sky.a(sicslowpan.o) (uip_aligned_buf)
build/sky/contiki-ng-sky.a(uipbuf.o)
                              build/sky/contiki-ng-sky.a(uip6.o) (uipbuf_add_ext_hdr)
build/sky/contiki-ng-sky.a(uip-ds6.o)
                              build/sky/contiki-ng-sky.a(tcpip.o) (uip_ds6_is_addr_onlink)
build/sky/contiki-ng-sky.a(uip-ds6-nbr.o)
                              build/sky/contiki-ng-sky.a(uip-ds6.o) (uip_ds6_neighbors_init)
build/sky/contiki-ng-sky.a(uip-ds6-route.o)
                              build/sky/contiki-ng-sky.a(uip-ds6.o) (uip_ds6_route_init)
build/sky/contiki-ng-sky.a(uip-icmp6.o)
                              build/sky/contiki-ng-sky.a(uip6.o) (uip_icmp6_input)
build/sky/contiki-ng-sky.a(uiplib.o)
                              build/sky/contiki-ng-sky.a(log.o) (uiplib_ipaddr_snprint)
build/sky/contiki-ng-sky.a(uip-nd6.o)
                              build/sky/contiki-ng-sky.a(uip6.o) (uip_nd6_init)
build/sky/contiki-ng-sky.a(uip-udp-packet.)
                              build/sky/contiki-ng-sky.a(simple-udp.o) (uip_udp_packet_sendto)
build/sky/contiki-ng-sky.a(rpl.o)
                              udp-client.o (rpl_lite_driver)
build/sky/contiki-ng-sky.a(rpl-dag.o)
                              build/sky/contiki-ng-sky.a(rpl.o) (curr_instance)
build/sky/contiki-ng-sky.a(rpl-dag-root.o)
                              build/sky/contiki-ng-sky.a(rpl.o) (rpl_dag_root_set_prefix)
build/sky/contiki-ng-sky.a(rpl-ext-header.)
                              build/sky/contiki-ng-sky.a(rpl.o) (rpl_ext_header_srh_get_next_hop)
build/sky/contiki-ng-sky.a(rpl-icmp6.o)
                              build/sky/contiki-ng-sky.a(rpl-dag.o) (rpl_icmp6_update_nbr_table)
build/sky/contiki-ng-sky.a(rpl-icmp6-malic)
                              build/sky/contiki-ng-sky.a(rpl.o) (rpl_icmp6_flood_init)
build/sky/contiki-ng-sky.a(rpl-mrhof.o)
                              build/sky/contiki-ng-sky.a(rpl-dag.o) (rpl_mrhof)
build/sky/contiki-ng-sky.a(rpl-neighbor.o)
                              build/sky/contiki-ng-sky.a(rpl-dag.o) (rpl_neighbors)
build/sky/contiki-ng-sky.a(rpl-timers.o)
                              build/sky/contiki-ng-sky.a(rpl-dag.o) (rpl_timers_schedule_periodic_dis)
build/sky/contiki-ng-sky.a(contiki-sky-pla)
                              build/sky/contiki-ng-sky.a(platform.o) (init_platform)
build/sky/contiki-ng-sky.a(button-sensor.o)
                              build/sky/contiki-ng-sky.a(contiki-sky-pla) (button_sensor)
build/sky/contiki-ng-sky.a(ds2411.o)
                              build/sky/contiki-ng-sky.a(platform.o) (ds2411_init)
build/sky/contiki-ng-sky.a(xmem.o)
                              build/sky/contiki-ng-sky.a(platform.o) (xmem_init)
build/sky/contiki-ng-sky.a(sensors.o)
                              build/sky/contiki-ng-sky.a(button-sensor.o) (sensors_changed)
build/sky/contiki-ng-sky.a(cc2420.o)
                              build/sky/contiki-ng-sky.a(platform.o) (cc2420_set_pan_addr)
build/sky/contiki-ng-sky.a(cc2420-arch.o)
                              build/sky/contiki-ng-sky.a(cc2420.o) (cc2420_arch_init)
build/sky/contiki-ng-sky.a(uart1.o)
                              build/sky/contiki-ng-sky.a(platform.o) (uart1_active)
build/sky/contiki-ng-sky.a(rtimer-arch.o)
                              build/sky/contiki-ng-sky.a(rtimer.o) (rtimer_arch_init)
build/sky/contiki-ng-sky.a(stimer.o)
                              build/sky/contiki-ng-sky.a(uip-ds6.o) (stimer_set)
build/sky/contiki-ng-sky.a(memb.o)
                              build/sky/contiki-ng-sky.a(queuebuf.o) (memb_init)
build/sky/contiki-ng-sky.a(link-stats.o)
                              build/sky/contiki-ng-sky.a(rpl-neighbor.o) (link_stats_from_lladdr)
build/sky/contiki-ng-sky.a(nbr-table.o)
                              build/sky/contiki-ng-sky.a(uip-ds6-nbr.o) (nbr_table_register)
build/sky/contiki-ng-sky.a(packetbuf.o)
                              build/sky/contiki-ng-sky.a(sicslowpan.o) (packetbuf_set_datalen)
build/sky/contiki-ng-sky.a(mac.o)
                              build/sky/contiki-ng-sky.a(csma-output.o) (mac_call_sent_callback)
build/sky/contiki-ng-sky.a(mac-sequence.o)
                              build/sky/contiki-ng-sky.a(csma.o) (mac_sequence_is_duplicate)
build/sky/contiki-ng-sky.a(framer-802154.o)
                              build/sky/contiki-ng-sky.a(csma.o) (framer_802154)
build/sky/contiki-ng-sky.a(uip-sr.o)
                              build/sky/contiki-ng-sky.a(rpl-dag-root.o) (uip_sr_num_nodes)
build/sky/contiki-ng-sky.a(rpl-nbr-policy.)
                              build/sky/contiki-ng-sky.a(nbr-table.o) (rpl_nbr_policy_find_removable)
build/sky/contiki-ng-sky.a(spi-legacy.o)
                              build/sky/contiki-ng-sky.a(xmem.o) (spi_init)
build/sky/contiki-ng-sky.a(frame802154.o)
                              build/sky/contiki-ng-sky.a(framer-802154.o) (frame802154_get_pan_id)
/usr/local/msp430/bin/../lib/gcc/msp430/4.7.0/mmpy-16/libgcc.a(_mulsi3.o)
                              build/sky/contiki-ng-sky.a(rpl-timers.o) (__mulsi3)
/usr/local/msp430/bin/../lib/gcc/msp430/4.7.0/mmpy-16/libgcc.a(_udivmod16.o)
                              build/sky/contiki-ng-sky.a(rpl-timers.o) (__udivhi3)
/usr/local/msp430/bin/../lib/gcc/msp430/4.7.0/mmpy-16/libgcc.a(_divmod16.o)
                              build/sky/contiki-ng-sky.a(sicslowpan.o) (__divhi3)
/usr/local/msp430/bin/../lib/gcc/msp430/4.7.0/mmpy-16/libgcc.a(_udivmod32.o)
                              build/sky/contiki-ng-sky.a(rpl-neighbor.o) (__udivsi3)
/usr/local/msp430/bin/../lib/gcc/msp430/4.7.0/mmpy-16/libgcc.a(_divmod32.o)
                              build/sky/contiki-ng-sky.a(link-stats.o) (__divsi3)
/usr/local/msp430/bin/../lib/gcc/msp430/4.7.0/../../../../msp430/lib/mmpy-16/libc.a(printf.o)
                              udp-client.o (printf)
/usr/local/msp430/bin/../lib/gcc/msp430/4.7.0/../../../../msp430/lib/mmpy-16/libc.a(sprintf.o)
                              udp-client.o (snprintf)
/usr/local/msp430/bin/../lib/gcc/msp430/4.7.0/../../../../msp430/lib/mmpy-16/libc.a(vuprintf.o)
                              /usr/local/msp430/bin/../lib/gcc/msp430/4.7.0/../../../../msp430/lib/mmpy-16/libc.a(printf.o) (vuprintf)
/usr/local/msp430/bin/../lib/gcc/msp430/4.7.0/../../../../msp430/lib/mmpy-16/libc.a(puts.o)
                              udp-client.o (puts)
/usr/local/msp430/bin/../lib/gcc/msp430/4.7.0/../../../../msp430/lib/mmpy-16/libc.a(rand.o)
                              build/sky/contiki-ng-sky.a(random.o) (rand)
/usr/local/msp430/bin/../lib/gcc/msp430/4.7.0/../../../../msp430/lib/mmpy-16/libc.a(strcmp.o)
                              build/sky/contiki-ng-sky.a(log.o) (strcmp)
/usr/local/msp430/bin/../lib/gcc/msp430/4.7.0/../../../../msp430/lib/mmpy-16/libc.a(strncmp.o)
                              build/sky/contiki-ng-sky.a(sensors.o) (strncmp)
/usr/local/msp430/bin/../lib/gcc/msp430/4.7.0/../../../../msp430/lib/mmpy-16/libc.a(memcmp.o)
                              build/sky/contiki-ng-sky.a(linkaddr.o) (memcmp)
/usr/local/msp430/bin/../lib/gcc/msp430/4.7.0/../../../../msp430/lib/mmpy-16/libc.a(strcpy.o)
                              build/sky/contiki-ng-sky.a(rpl-icmp6-malic) (strcpy)
/usr/local/msp430/bin/../lib/gcc/msp430/4.7.0/../../../../msp430/lib/mmpy-16/libc.a(memcpy.o)
                              build/sky/obj/contiki-main.o (memcpy)
/usr/local/msp430/bin/../lib/gcc/msp430/4.7.0/../../../../msp430/lib/mmpy-16/libc.a(memmove.o)
                              build/sky/contiki-ng-sky.a(sicslowpan.o) (memmove)
/usr/local/msp430/bin/../lib/gcc/msp430/4.7.0/../../../../msp430/lib/mmpy-16/libc.a(memset.o)
                              build/sky/contiki-ng-sky.a(platform.o) (memset)
/usr/local/msp430/bin/../lib/gcc/msp430/4.7.0/mmpy-16/libgcc.a(_udivmod64.o)
                              /usr/local/msp430/bin/../lib/gcc/msp430/4.7.0/../../../../msp430/lib/mmpy-16/libc.a(vuprintf.o) (__udivdi3)
/usr/local/msp430/bin/../lib/gcc/msp430/4.7.0/mmpy-16/libcrt0.a(_reset_vector__.o)
                              (_reset_vector__)
/usr/local/msp430/bin/../lib/gcc/msp430/4.7.0/mmpy-16/libcrt0.a(__watchdog_support.o)
                              /usr/local/msp430/bin/../lib/gcc/msp430/4.7.0/mmpy-16/libcrt0.a(_reset_vector__.o) (__watchdog_support)
/usr/local/msp430/bin/../lib/gcc/msp430/4.7.0/mmpy-16/libcrt0.a(__init_stack.o)
                              /usr/local/msp430/bin/../lib/gcc/msp430/4.7.0/mmpy-16/libcrt0.a(_reset_vector__.o) (__init_stack)
/usr/local/msp430/bin/../lib/gcc/msp430/4.7.0/mmpy-16/libcrt0.a(__low_level_init.o)
                              /usr/local/msp430/bin/../lib/gcc/msp430/4.7.0/mmpy-16/libcrt0.a(_reset_vector__.o) (__low_level_init)
/usr/local/msp430/bin/../lib/gcc/msp430/4.7.0/mmpy-16/libcrt0.a(_copy_data.o)
                              /usr/local/msp430/bin/../lib/gcc/msp430/4.7.0/mmpy-16/libcrt0.a(_reset_vector__.o) (__do_copy_data)
/usr/local/msp430/bin/../lib/gcc/msp430/4.7.0/mmpy-16/libcrt0.a(_clear_bss.o)
                              /usr/local/msp430/bin/../lib/gcc/msp430/4.7.0/mmpy-16/libcrt0.a(_reset_vector__.o) (__do_clear_bss)
/usr/local/msp430/bin/../lib/gcc/msp430/4.7.0/mmpy-16/libcrt0.a(__stop_progExec__.o)
                              /usr/local/msp430/bin/../lib/gcc/msp430/4.7.0/mmpy-16/libcrt0.a(_reset_vector__.o) (__stop_progExec__)
/usr/local/msp430/bin/../lib/gcc/msp430/4.7.0/mmpy-16/libcrt0.a(_endless_loop__.o)
                              /usr/local/msp430/bin/../lib/gcc/msp430/4.7.0/mmpy-16/libcrt0.a(_reset_vector__.o) (_endless_loop__)
/usr/local/msp430/bin/../lib/gcc/msp430/4.7.0/mmpy-16/libcrt0.a(_unexpected_.o)
                              /usr/local/msp430/bin/../lib/gcc/msp430/4.7.0/mmpy-16/crt0ivtbl16.o (_unexpected_)

Allocating common symbols
Common symbol       size              file

uip_ds6_timer_ra    0x8               build/sky/contiki-ng-sky.a(uip-ds6.o)
cc2420_last_rssi    0x1               build/sky/contiki-ng-sky.a(cc2420.o)
uip_ds6_if          0xec              build/sky/contiki-ng-sky.a(uip-ds6.o)
uip_ds6_netif_addr_list_offset
                    0x1               build/sky/contiki-ng-sky.a(uip-ds6.o)
uip_len             0x2               build/sky/contiki-ng-sky.a(uip6.o)
cc2420_sfd_start_time
                    0x2               build/sky/contiki-ng-sky.a(cc2420.o)
uip_ds6_addr_size   0x1               build/sky/contiki-ng-sky.a(uip-ds6.o)
curr_instance       0xfe              build/sky/contiki-ng-sky.a(rpl-dag.o)
uip_sappdata        0x2               build/sky/contiki-ng-sky.a(uip6.o)
packetbuf_addrs     0x10              build/sky/contiki-ng-sky.a(packetbuf.o)
uip_ds6_prefix_list
                    0x5a              build/sky/contiki-ng-sky.a(uip-ds6.o)
uip_lladdr          0x8               build/sky/contiki-ng-sky.a(uip6.o)
uip_aligned_buf     0xf0              build/sky/contiki-ng-sky.a(uip6.o)
uip_flags           0x1               build/sky/contiki-ng-sky.a(uip6.o)
rpl_multicast_addr  0x10              build/sky/contiki-ng-sky.a(rpl.o)
periodic_timer      0x14              build/sky/contiki-ng-sky.a(link-stats.o)
uip_ds6_timer_periodic
                    0xc               build/sky/contiki-ng-sky.a(uip-ds6.o)
cc2420_last_correlation
                    0x1               build/sky/contiki-ng-sky.a(cc2420.o)
linkaddr_node_addr  0x8               build/sky/contiki-ng-sky.a(linkaddr.o)
cc2420_authority_level_of_sender
                    0x2               build/sky/contiki-ng-sky.a(cc2420.o)
uip_udp_conn        0x2               build/sky/contiki-ng-sky.a(uip6.o)
packetbuf_attrs     0x1a              build/sky/contiki-ng-sky.a(packetbuf.o)
msp430_dco_required
                    0x2               build/sky/contiki-ng-sky.a(msp430.o)
selector            0x1               udp-client.o
cc2420_sfd_counter  0x1               build/sky/contiki-ng-sky.a(cc2420.o)
uip_appdata         0x2               build/sky/contiki-ng-sky.a(uip6.o)
uip_conn            0x2               build/sky/contiki-ng-sky.a(uip6.o)
tcpip_event         0x1               build/sky/contiki-ng-sky.a(tcpip.o)
unicast_per_neighbor_rpl_storing
                    0xa               build/sky/obj/contiki-main.o
unicast_per_neighbor_rpl_ns
                    0xa               build/sky/obj/contiki-main.o
icmp_dropped        0x2               udp-client.o
default_common      0xa               build/sky/obj/contiki-main.o
malicious_nodes_list
                    0x2               udp-client.o
icmp_forwarded      0x2               udp-client.o
legitimate_nodes_list
                    0x2               udp-client.o
flood               0x1               udp-client.o
sensors_flags       0x2               build/sky/contiki-ng-sky.a(contiki-sky-pla)
eb_per_time_source  0xa               build/sky/obj/contiki-main.o
cc2420_sfd_end_time
                    0x2               build/sky/contiki-ng-sky.a(cc2420.o)
dis_sent_flood      0x2               udp-client.o
sensors_event       0x1               build/sky/contiki-ng-sky.a(sensors.o)
ds2411_id           0x8               build/sky/contiki-ng-sky.a(ds2411.o)
uip_slen            0x2               build/sky/contiki-ng-sky.a(uip6.o)
uip_udp_conns       0xd0              build/sky/contiki-ng-sky.a(uip6.o)

Discarded input sections

 .data          0x00000000        0x0 /usr/local/msp430/bin/../lib/gcc/msp430/4.7.0/mmpy-16/crt0ivtbl16.o
 .bss           0x00000000        0x0 /usr/local/msp430/bin/../lib/gcc/msp430/4.7.0/mmpy-16/crt0ivtbl16.o
 .text.crt0     0x00000000        0x0 /usr/local/msp430/bin/../lib/gcc/msp430/4.7.0/mmpy-16/crt0ivtbl16.o
 .text          0x00000000        0x0 udp-client.o
 .text          0x00000000        0x0 build/sky/obj/contiki-main.o
 .data          0x00000000        0x0 build/sky/obj/contiki-main.o
 .bss           0x00000000        0x0 build/sky/obj/contiki-main.o
 COMMON         0x00000000       0x28 build/sky/obj/contiki-main.o
 .text          0x00000000        0x0 build/sky/contiki-ng-sky.a(uart1-putchar.o)
 .data          0x00000000        0x0 build/sky/contiki-ng-sky.a(uart1-putchar.o)
 .bss           0x00000000        0x0 build/sky/contiki-ng-sky.a(uart1-putchar.o)
 .text          0x00000000        0x0 build/sky/contiki-ng-sky.a(platform.o)
 .data          0x00000000        0x0 build/sky/contiki-ng-sky.a(platform.o)
 .text.uip_log  0x00000000        0x6 build/sky/contiki-ng-sky.a(platform.o)
 .text          0x00000000        0x0 build/sky/contiki-ng-sky.a(msp430.o)
 .bss           0x00000000        0x0 build/sky/contiki-ng-sky.a(msp430.o)
 .text.msp430_remove_lpm_req
                0x00000000        0xc build/sky/contiki-ng-sky.a(msp430.o)
 .text.sbrk     0x00000000       0x1e build/sky/contiki-ng-sky.a(msp430.o)
 .text          0x00000000        0x0 build/sky/contiki-ng-sky.a(clock.o)
 .data          0x00000000        0x0 build/sky/contiki-ng-sky.a(clock.o)
 .text.clock_set
                0x00000000       0x16 build/sky/contiki-ng-sky.a(clock.o)
 .text.clock_fine_max
                0x00000000        0x6 build/sky/contiki-ng-sky.a(clock.o)
 .text.clock_fine
                0x00000000        0xc build/sky/contiki-ng-sky.a(clock.o)
 .text.clock_wait
                0x00000000       0x30 build/sky/contiki-ng-sky.a(clock.o)
 .text.clock_set_seconds
                0x00000000       0x1c build/sky/contiki-ng-sky.a(clock.o)
 .text.clock_counter
                0x00000000        0xe build/sky/contiki-ng-sky.a(clock.o)
 .text          0x00000000        0x0 build/sky/contiki-ng-sky.a(leds.o)
 .data          0x00000000        0x0 build/sky/contiki-ng-sky.a(leds.o)
 .bss           0x00000000        0x0 build/sky/contiki-ng-sky.a(leds.o)
 .text.leds_get
                0x00000000        0x6 build/sky/contiki-ng-sky.a(leds.o)
 .text.leds_set
                0x00000000        0x6 build/sky/contiki-ng-sky.a(leds.o)
 .text.leds_toggle
                0x00000000       0x12 build/sky/contiki-ng-sky.a(leds.o)
 .text.leds_blink
                0x00000000       0x22 build/sky/contiki-ng-sky.a(leds.o)
 .text          0x00000000        0x0 build/sky/contiki-ng-sky.a(leds-arch.o)
 .data          0x00000000        0x0 build/sky/contiki-ng-sky.a(leds-arch.o)
 .bss           0x00000000        0x0 build/sky/contiki-ng-sky.a(leds-arch.o)
 .text          0x00000000        0x0 build/sky/contiki-ng-sky.a(watchdog.o)
 .data          0x00000000        0x0 build/sky/contiki-ng-sky.a(watchdog.o)
 .text.watchdog_reboot
                0x00000000        0x6 build/sky/contiki-ng-sky.a(watchdog.o)
 .text          0x00000000        0x0 build/sky/contiki-ng-sky.a(autostart.o)
 .data          0x00000000        0x0 build/sky/contiki-ng-sky.a(autostart.o)
 .bss           0x00000000        0x0 build/sky/contiki-ng-sky.a(autostart.o)
 .text.autostart_exit
                0x00000000       0x14 build/sky/contiki-ng-sky.a(autostart.o)
 .text          0x00000000        0x0 build/sky/contiki-ng-sky.a(ctimer.o)
 .text.ctimer_restart
                0x00000000       0x30 build/sky/contiki-ng-sky.a(ctimer.o)
 .text          0x00000000        0x0 build/sky/contiki-ng-sky.a(energest.o)
 .data          0x00000000        0x0 build/sky/contiki-ng-sky.a(energest.o)
 .bss           0x00000000        0x0 build/sky/contiki-ng-sky.a(energest.o)
 .text.energest_get_total_time
                0x00000000        0xa build/sky/contiki-ng-sky.a(energest.o)
 .text          0x00000000        0x0 build/sky/contiki-ng-sky.a(etimer.o)
 .text.etimer_reset_with_new_interval
                0x00000000       0x26 build/sky/contiki-ng-sky.a(etimer.o)
 .text.etimer_restart
                0x00000000       0x12 build/sky/contiki-ng-sky.a(etimer.o)
 .text.etimer_adjust
                0x00000000       0x1a build/sky/contiki-ng-sky.a(etimer.o)
 .text.etimer_expiration_time
                0x00000000       0x14 build/sky/contiki-ng-sky.a(etimer.o)
 .text.etimer_start_time
                0x00000000        0x8 build/sky/contiki-ng-sky.a(etimer.o)
 .text          0x00000000        0x0 build/sky/contiki-ng-sky.a(log.o)
 .text.log_6addr_compact_snprint
                0x00000000       0x5c build/sky/contiki-ng-sky.a(log.o)
 .text.log_6addr_compact
                0x00000000       0x2e build/sky/contiki-ng-sky.a(log.o)
 .text.log_lladdr_compact
                0x00000000       0x3e build/sky/contiki-ng-sky.a(log.o)
 .text.log_set_level
                0x00000000       0x58 build/sky/contiki-ng-sky.a(log.o)
 .text.log_get_level
                0x00000000       0x48 build/sky/contiki-ng-sky.a(log.o)
 .text.log_level_to_str
                0x00000000       0x14 build/sky/contiki-ng-sky.a(log.o)
 .text          0x00000000        0x0 build/sky/contiki-ng-sky.a(node-id.o)
 .data          0x00000000        0x0 build/sky/contiki-ng-sky.a(node-id.o)
 .text          0x00000000        0x0 build/sky/contiki-ng-sky.a(process.o)
 .data          0x00000000        0x0 build/sky/contiki-ng-sky.a(process.o)
 .text.process_exit
                0x00000000        0xa build/sky/contiki-ng-sky.a(process.o)
 .text.process_is_running
                0x00000000        0xe build/sky/contiki-ng-sky.a(process.o)
 .text          0x00000000        0x0 build/sky/contiki-ng-sky.a(rtimer.o)
 .data          0x00000000        0x0 build/sky/contiki-ng-sky.a(rtimer.o)
 .text.rtimer_set
                0x00000000       0x24 build/sky/contiki-ng-sky.a(rtimer.o)
 .text          0x00000000        0x0 build/sky/contiki-ng-sky.a(timer.o)
 .data          0x00000000        0x0 build/sky/contiki-ng-sky.a(timer.o)
 .bss           0x00000000        0x0 build/sky/contiki-ng-sky.a(timer.o)
 .text.timer_restart
                0x00000000       0x14 build/sky/contiki-ng-sky.a(timer.o)
 .text.timer_remaining
                0x00000000       0x28 build/sky/contiki-ng-sky.a(timer.o)
 .text          0x00000000        0x0 build/sky/contiki-ng-sky.a(list.o)
 .data          0x00000000        0x0 build/sky/contiki-ng-sky.a(list.o)
 .bss           0x00000000        0x0 build/sky/contiki-ng-sky.a(list.o)
 .text.list_copy
                0x00000000        0x6 build/sky/contiki-ng-sky.a(list.o)
 .text.list_chop
                0x00000000       0x1a build/sky/contiki-ng-sky.a(list.o)
 .text.list_pop
                0x00000000        0xe build/sky/contiki-ng-sky.a(list.o)
 .text.list_insert
                0x00000000       0x26 build/sky/contiki-ng-sky.a(list.o)
 .text.list_contains
                0x00000000       0x12 build/sky/contiki-ng-sky.a(list.o)
 .text          0x00000000        0x0 build/sky/contiki-ng-sky.a(random.o)
 .data          0x00000000        0x0 build/sky/contiki-ng-sky.a(random.o)
 .bss           0x00000000        0x0 build/sky/contiki-ng-sky.a(random.o)
 .text          0x00000000        0x0 build/sky/contiki-ng-sky.a(linkaddr.o)
 .data          0x00000000        0x0 build/sky/contiki-ng-sky.a(linkaddr.o)
 .bss           0x00000000        0x0 build/sky/contiki-ng-sky.a(linkaddr.o)
 .text          0x00000000        0x0 build/sky/contiki-ng-sky.a(netstack.o)
 .data          0x00000000        0x0 build/sky/contiki-ng-sky.a(netstack.o)
 .text.netstack_ip_packet_processor_add
                0x00000000       0x10 build/sky/contiki-ng-sky.a(netstack.o)
 .text.uip_ds6_ip_packet_processor_rm
                0x00000000        0xc build/sky/contiki-ng-sky.a(netstack.o)
 .text          0x00000000        0x0 build/sky/contiki-ng-sky.a(queuebuf.o)
 .text.queuebuf_update_from_packetbuf
                0x00000000       0x22 build/sky/contiki-ng-sky.a(queuebuf.o)
 .text.queuebuf_dataptr
                0x00000000       0x1c build/sky/contiki-ng-sky.a(queuebuf.o)
 .text.queuebuf_datalen
                0x00000000        0x8 build/sky/contiki-ng-sky.a(queuebuf.o)
 .text.queuebuf_addr
                0x00000000       0x16 build/sky/contiki-ng-sky.a(queuebuf.o)
 .text.queuebuf_attr
                0x00000000        0xe build/sky/contiki-ng-sky.a(queuebuf.o)
 .text.queuebuf_debug_print
                0x00000000        0x2 build/sky/contiki-ng-sky.a(queuebuf.o)
 .text          0x00000000        0x0 build/sky/contiki-ng-sky.a(csma.o)
 .data          0x00000000        0x0 build/sky/contiki-ng-sky.a(csma.o)
 .bss           0x00000000        0x0 build/sky/contiki-ng-sky.a(csma.o)
 .text          0x00000000        0x0 build/sky/contiki-ng-sky.a(csma-output.o)
 .text          0x00000000        0x0 build/sky/contiki-ng-sky.a(csma-security.o)
 .data          0x00000000        0x0 build/sky/contiki-ng-sky.a(csma-security.o)
 .bss           0x00000000        0x0 build/sky/contiki-ng-sky.a(csma-security.o)
 .text          0x00000000        0x0 build/sky/contiki-ng-sky.a(sicslowpan.o)
 .data          0x00000000        0x0 build/sky/contiki-ng-sky.a(sicslowpan.o)
 .text.netstack_sniffer_add
                0x00000000        0x6 build/sky/contiki-ng-sky.a(sicslowpan.o)
 .text.netstack_sniffer_remove
                0x00000000        0x6 build/sky/contiki-ng-sky.a(sicslowpan.o)
 .text.sicslowpan_get_last_rssi
                0x00000000        0x6 build/sky/contiki-ng-sky.a(sicslowpan.o)
 .text          0x00000000        0x0 build/sky/contiki-ng-sky.a(simple-udp.o)
 .text.simple_udp_send
                0x00000000       0x2e build/sky/contiki-ng-sky.a(simple-udp.o)
 .text.simple_udp_sendto_port
                0x00000000       0x2a build/sky/contiki-ng-sky.a(simple-udp.o)
 .text          0x00000000        0x0 build/sky/contiki-ng-sky.a(tcpip.o)
 .text.udp_attach
                0x00000000        0xc build/sky/contiki-ng-sky.a(tcpip.o)
 .text.udp_broadcast_new
                0x00000000       0x46 build/sky/contiki-ng-sky.a(tcpip.o)
 .text.tcpip_poll_udp
                0x00000000        0xe build/sky/contiki-ng-sky.a(tcpip.o)
 .text          0x00000000        0x0 build/sky/contiki-ng-sky.a(uip6.o)
 .data          0x00000000        0x0 build/sky/contiki-ng-sky.a(uip6.o)
 .text.uip_chksum
                0x00000000       0x18 build/sky/contiki-ng-sky.a(uip6.o)
 .text.uip_htons
                0x00000000        0xc build/sky/contiki-ng-sky.a(uip6.o)
 .text.uip_send
                0x00000000       0x62 build/sky/contiki-ng-sky.a(uip6.o)
 .text          0x00000000        0x0 build/sky/contiki-ng-sky.a(uipbuf.o)
 .data          0x00000000        0x0 build/sky/contiki-ng-sky.a(uipbuf.o)
 .text.uipbuf_set_attr
                0x00000000       0x16 build/sky/contiki-ng-sky.a(uipbuf.o)
 .text.uipbuf_set_default_attr
                0x00000000       0x16 build/sky/contiki-ng-sky.a(uipbuf.o)
 .text.uipbuf_set_attr_flag
                0x00000000        0x6 build/sky/contiki-ng-sky.a(uipbuf.o)
 .text.uipbuf_clr_attr_flag
                0x00000000        0x6 build/sky/contiki-ng-sky.a(uipbuf.o)
 .text.uipbuf_is_attr_flag
                0x00000000       0x12 build/sky/contiki-ng-sky.a(uipbuf.o)
 .text          0x00000000        0x0 build/sky/contiki-ng-sky.a(uip-ds6.o)
 .data          0x00000000        0x0 build/sky/contiki-ng-sky.a(uip-ds6.o)
 .text.uip_ds6_set_default_prefix
                0x00000000       0x10 build/sky/contiki-ng-sky.a(uip-ds6.o)
 .text.uip_ds6_prefix_rm
                0x00000000        0xa build/sky/contiki-ng-sky.a(uip-ds6.o)
 .text.uip_ds6_prefix_lookup
                0x00000000       0x28 build/sky/contiki-ng-sky.a(uip-ds6.o)
 .text.uip_ds6_get_global
                0x00000000       0x3e build/sky/contiki-ng-sky.a(uip-ds6.o)
 .text.uip_ds6_aaddr_add
                0x00000000       0x4a build/sky/contiki-ng-sky.a(uip-ds6.o)
 .text.uip_ds6_aaddr_rm
                0x00000000        0xa build/sky/contiki-ng-sky.a(uip-ds6.o)
 .text.uip_ds6_aaddr_lookup
                0x00000000       0x28 build/sky/contiki-ng-sky.a(uip-ds6.o)
 .text          0x00000000        0x0 build/sky/contiki-ng-sky.a(uip-ds6-nbr.o)
 .text.uip_ds6_nbr_get_ipaddr
                0x00000000        0x2 build/sky/contiki-ng-sky.a(uip-ds6-nbr.o)
 .text.uip_ds6_nbr_num
                0x00000000       0x24 build/sky/contiki-ng-sky.a(uip-ds6-nbr.o)
 .text          0x00000000        0x0 build/sky/contiki-ng-sky.a(uip-ds6-route.o)
 .text.uip_ds6_route_head
                0x00000000        0x4 build/sky/contiki-ng-sky.a(uip-ds6-route.o)
 .text.uip_ds6_route_next
                0x00000000        0x4 build/sky/contiki-ng-sky.a(uip-ds6-route.o)
 .text.uip_ds6_route_is_nexthop
                0x00000000        0x4 build/sky/contiki-ng-sky.a(uip-ds6-route.o)
 .text.uip_ds6_route_num_routes
                0x00000000        0x4 build/sky/contiki-ng-sky.a(uip-ds6-route.o)
 .text.uip_ds6_route_add
                0x00000000        0x4 build/sky/contiki-ng-sky.a(uip-ds6-route.o)
 .text.uip_ds6_route_rm_by_nexthop
                0x00000000        0x2 build/sky/contiki-ng-sky.a(uip-ds6-route.o)
 .text.uip_ds6_defrt_head
                0x00000000        0xa build/sky/contiki-ng-sky.a(uip-ds6-route.o)
 .text          0x00000000        0x0 build/sky/contiki-ng-sky.a(uip-icmp6.o)
 .text.uip_icmp6_echo_reply_callback_add
                0x00000000       0x18 build/sky/contiki-ng-sky.a(uip-icmp6.o)
 .text.uip_icmp6_echo_reply_callback_rm
                0x00000000        0xc build/sky/contiki-ng-sky.a(uip-icmp6.o)
 .text          0x00000000        0x0 build/sky/contiki-ng-sky.a(uiplib.o)
 .data          0x00000000        0x0 build/sky/contiki-ng-sky.a(uiplib.o)
 .bss           0x00000000        0x0 build/sky/contiki-ng-sky.a(uiplib.o)
 .text.uiplib_ip6addrconv
                0x00000000      0x10c build/sky/contiki-ng-sky.a(uiplib.o)
 .text.uiplib_ip4addrconv
                0x00000000       0x8a build/sky/contiki-ng-sky.a(uiplib.o)
 .text.uiplib_ipaddr_print
                0x00000000       0x32 build/sky/contiki-ng-sky.a(uiplib.o)
 .text          0x00000000        0x0 build/sky/contiki-ng-sky.a(uip-nd6.o)
 .text          0x00000000        0x0 build/sky/contiki-ng-sky.a(uip-udp-packet.)
 .data          0x00000000        0x0 build/sky/contiki-ng-sky.a(uip-udp-packet.)
 .bss           0x00000000        0x0 build/sky/contiki-ng-sky.a(uip-udp-packet.)
 .text          0x00000000        0x0 build/sky/contiki-ng-sky.a(rpl.o)
 .data          0x00000000        0x0 build/sky/contiki-ng-sky.a(rpl.o)
 .text.rpl_set_prefix
                0x00000000       0x2e build/sky/contiki-ng-sky.a(rpl.o)
 .text.rpl_set_leaf_only
                0x00000000        0x6 build/sky/contiki-ng-sky.a(rpl.o)
 .text          0x00000000        0x0 build/sky/contiki-ng-sky.a(rpl-dag.o)
 .data          0x00000000        0x0 build/sky/contiki-ng-sky.a(rpl-dag.o)
 .bss           0x00000000        0x0 build/sky/contiki-ng-sky.a(rpl-dag.o)
 .text.rpl_dag_state_to_str
                0x00000000       0x12 build/sky/contiki-ng-sky.a(rpl-dag.o)
 .text.rpl_get_default_instance
                0x00000000       0x10 build/sky/contiki-ng-sky.a(rpl-dag.o)
 .text.rpl_get_any_dag
                0x00000000       0x10 build/sky/contiki-ng-sky.a(rpl-dag.o)
 .text.rpl_refresh_routes
                0x00000000       0x20 build/sky/contiki-ng-sky.a(rpl-dag.o)
 .text          0x00000000        0x0 build/sky/contiki-ng-sky.a(rpl-dag-root.o)
 .data          0x00000000        0x0 build/sky/contiki-ng-sky.a(rpl-dag-root.o)
 .text.rpl_dag_root_print_links
                0x00000000       0x3e build/sky/contiki-ng-sky.a(rpl-dag-root.o)
 .text          0x00000000        0x0 build/sky/contiki-ng-sky.a(rpl-ext-header.)
 .data          0x00000000        0x0 build/sky/contiki-ng-sky.a(rpl-ext-header.)
 .bss           0x00000000        0x0 build/sky/contiki-ng-sky.a(rpl-ext-header.)
 .text          0x00000000        0x0 build/sky/contiki-ng-sky.a(rpl-icmp6.o)
 .bss           0x00000000        0x0 build/sky/contiki-ng-sky.a(rpl-icmp6.o)
 .text          0x00000000        0x0 build/sky/contiki-ng-sky.a(rpl-icmp6-malic)
 .text.init_flood
                0x00000000       0x2a build/sky/contiki-ng-sky.a(rpl-icmp6-malic)
 .text.init_selector
                0x00000000        0xe build/sky/contiki-ng-sky.a(rpl-icmp6-malic)
 .text.rpl_icmp6_malicious_output
                0x00000000       0x80 build/sky/contiki-ng-sky.a(rpl-icmp6-malic)
 .text.malicious_output
                0x00000000       0x20 build/sky/contiki-ng-sky.a(rpl-icmp6-malic)
 .text          0x00000000        0x0 build/sky/contiki-ng-sky.a(rpl-mrhof.o)
 .bss           0x00000000        0x0 build/sky/contiki-ng-sky.a(rpl-mrhof.o)
 .text          0x00000000        0x0 build/sky/contiki-ng-sky.a(rpl-neighbor.o)
 .text.rpl_neighbor_count
                0x00000000       0x2c build/sky/contiki-ng-sky.a(rpl-neighbor.o)
 .text.rpl_neighbor_is_acceptable_parent
                0x00000000       0x18 build/sky/contiki-ng-sky.a(rpl-neighbor.o)
 .text.rpl_neighbor_get_link_metric
                0x00000000       0x18 build/sky/contiki-ng-sky.a(rpl-neighbor.o)
 .rodata        0x00000000       0x58 build/sky/contiki-ng-sky.a(rpl-neighbor.o)
 .text.rpl_neighbor_snprint
                0x00000000      0x200 build/sky/contiki-ng-sky.a(rpl-neighbor.o)
 .text.rpl_neighbor_print_list
                0x00000000       0x3a build/sky/contiki-ng-sky.a(rpl-neighbor.o)
 .text.rpl_neighbor_is_reachable
                0x00000000       0x30 build/sky/contiki-ng-sky.a(rpl-neighbor.o)
 .text          0x00000000        0x0 build/sky/contiki-ng-sky.a(rpl-timers.o)
 .data          0x00000000        0x0 build/sky/contiki-ng-sky.a(rpl-timers.o)
 .text          0x00000000        0x0 build/sky/contiki-ng-sky.a(contiki-sky-pla)
 .bss           0x00000000        0x0 build/sky/contiki-ng-sky.a(contiki-sky-pla)
 .text          0x00000000        0x0 build/sky/contiki-ng-sky.a(button-sensor.o)
 .data          0x00000000        0x0 build/sky/contiki-ng-sky.a(button-sensor.o)
 .text          0x00000000        0x0 build/sky/contiki-ng-sky.a(ds2411.o)
 .data          0x00000000        0x0 build/sky/contiki-ng-sky.a(ds2411.o)
 .bss           0x00000000        0x0 build/sky/contiki-ng-sky.a(ds2411.o)
 .text          0x00000000        0x0 build/sky/contiki-ng-sky.a(xmem.o)
 .data          0x00000000        0x0 build/sky/contiki-ng-sky.a(xmem.o)
 .bss           0x00000000        0x0 build/sky/contiki-ng-sky.a(xmem.o)
 .text.write_enable
                0x00000000       0x28 build/sky/contiki-ng-sky.a(xmem.o)
 .text.wait_ready
                0x00000000       0x4a build/sky/contiki-ng-sky.a(xmem.o)
 .text.xmem_pread
                0x00000000       0xa4 build/sky/contiki-ng-sky.a(xmem.o)
 .text.xmem_pwrite
                0x00000000      0x102 build/sky/contiki-ng-sky.a(xmem.o)
 .text.xmem_erase
                0x00000000       0xba build/sky/contiki-ng-sky.a(xmem.o)
 .text          0x00000000        0x0 build/sky/contiki-ng-sky.a(sensors.o)
 .text.sensors_first
                0x00000000        0x6 build/sky/contiki-ng-sky.a(sensors.o)
 .text.sensors_next
                0x00000000       0x24 build/sky/contiki-ng-sky.a(sensors.o)
 .text.sensors_find
                0x00000000       0x50 build/sky/contiki-ng-sky.a(sensors.o)
 .text          0x00000000        0x0 build/sky/contiki-ng-sky.a(cc2420.o)
 .text.cc2420_get_channel
                0x00000000        0x6 build/sky/contiki-ng-sky.a(cc2420.o)
 .text          0x00000000        0x0 build/sky/contiki-ng-sky.a(cc2420-arch.o)
 .data          0x00000000        0x0 build/sky/contiki-ng-sky.a(cc2420-arch.o)
 .bss           0x00000000        0x0 build/sky/contiki-ng-sky.a(cc2420-arch.o)
 .text          0x00000000        0x0 build/sky/contiki-ng-sky.a(uart1.o)
 .data          0x00000000        0x0 build/sky/contiki-ng-sky.a(uart1.o)
 .text.handle_rxdma_timer
                0x00000000       0x3a build/sky/contiki-ng-sky.a(uart1.o)
 .text.uart1_set_input
                0x00000000       0x20 build/sky/contiki-ng-sky.a(uart1.o)
 .text          0x00000000        0x0 build/sky/contiki-ng-sky.a(rtimer-arch.o)
 .data          0x00000000        0x0 build/sky/contiki-ng-sky.a(rtimer-arch.o)
 .bss           0x00000000        0x0 build/sky/contiki-ng-sky.a(rtimer-arch.o)
 .text          0x00000000        0x0 build/sky/contiki-ng-sky.a(stimer.o)
 .data          0x00000000        0x0 build/sky/contiki-ng-sky.a(stimer.o)
 .bss           0x00000000        0x0 build/sky/contiki-ng-sky.a(stimer.o)
 .text.stimer_restart
                0x00000000       0x14 build/sky/contiki-ng-sky.a(stimer.o)
 .text.stimer_reset
                0x00000000       0x1c build/sky/contiki-ng-sky.a(stimer.o)
 .text.stimer_remaining
                0x00000000       0x28 build/sky/contiki-ng-sky.a(stimer.o)
 .text.stimer_elapsed
                0x00000000       0x12 build/sky/contiki-ng-sky.a(stimer.o)
 .text          0x00000000        0x0 build/sky/contiki-ng-sky.a(memb.o)
 .data          0x00000000        0x0 build/sky/contiki-ng-sky.a(memb.o)
 .bss           0x00000000        0x0 build/sky/contiki-ng-sky.a(memb.o)
 .text          0x00000000        0x0 build/sky/contiki-ng-sky.a(link-stats.o)
 .text.link_stats_get_lladdr
                0x00000000        0xc build/sky/contiki-ng-sky.a(link-stats.o)
 .text          0x00000000        0x0 build/sky/contiki-ng-sky.a(nbr-table.o)
 .text          0x00000000        0x0 build/sky/contiki-ng-sky.a(packetbuf.o)
 .data          0x00000000        0x0 build/sky/contiki-ng-sky.a(packetbuf.o)
 .text.packetbuf_remaininglen
                0x00000000        0xe build/sky/contiki-ng-sky.a(packetbuf.o)
 .text          0x00000000        0x0 build/sky/contiki-ng-sky.a(mac.o)
 .data          0x00000000        0x0 build/sky/contiki-ng-sky.a(mac.o)
 .bss           0x00000000        0x0 build/sky/contiki-ng-sky.a(mac.o)
 .text          0x00000000        0x0 build/sky/contiki-ng-sky.a(mac-sequence.o)
 .data          0x00000000        0x0 build/sky/contiki-ng-sky.a(mac-sequence.o)
 .text          0x00000000        0x0 build/sky/contiki-ng-sky.a(framer-802154.o)
 .data          0x00000000        0x0 build/sky/contiki-ng-sky.a(framer-802154.o)
 .text          0x00000000        0x0 build/sky/contiki-ng-sky.a(uip-sr.o)
 .text.uip_sr_num_nodes
                0x00000000        0x6 build/sky/contiki-ng-sky.a(uip-sr.o)
 .text.uip_sr_node_head
                0x00000000        0xa build/sky/contiki-ng-sky.a(uip-sr.o)
 .text.uip_sr_node_next
                0x00000000        0x6 build/sky/contiki-ng-sky.a(uip-sr.o)
 .rodata        0x00000000       0x44 build/sky/contiki-ng-sky.a(uip-sr.o)
 .text.uip_sr_link_snprint
                0x00000000       0xd6 build/sky/contiki-ng-sky.a(uip-sr.o)
 .text          0x00000000        0x0 build/sky/contiki-ng-sky.a(rpl-nbr-policy.)
 .data          0x00000000        0x0 build/sky/contiki-ng-sky.a(rpl-nbr-policy.)
 .text          0x00000000        0x0 build/sky/contiki-ng-sky.a(spi-legacy.o)
 .data          0x00000000        0x0 build/sky/contiki-ng-sky.a(spi-legacy.o)
 .bss           0x00000000        0x1 build/sky/contiki-ng-sky.a(spi-legacy.o)
 .text          0x00000000        0x0 build/sky/contiki-ng-sky.a(frame802154.o)
 .bss           0x00000000        0x0 build/sky/contiki-ng-sky.a(frame802154.o)
 .text.frame802154_set_pan_id
                0x00000000        0x6 build/sky/contiki-ng-sky.a(frame802154.o)
 .text.frame802154_check_dest_panid
                0x00000000       0x3a build/sky/contiki-ng-sky.a(frame802154.o)
 .text.frame802154_extract_linkaddr
                0x00000000       0x9c build/sky/contiki-ng-sky.a(frame802154.o)
 .text          0x00000000        0x0 /usr/local/msp430/bin/../lib/gcc/msp430/4.7.0/mmpy-16/libgcc.a(_mulsi3.o)
 .data          0x00000000        0x0 /usr/local/msp430/bin/../lib/gcc/msp430/4.7.0/mmpy-16/libgcc.a(_mulsi3.o)
 .bss           0x00000000        0x0 /usr/local/msp430/bin/../lib/gcc/msp430/4.7.0/mmpy-16/libgcc.a(_mulsi3.o)
 .text          0x00000000        0x0 /usr/local/msp430/bin/../lib/gcc/msp430/4.7.0/mmpy-16/libgcc.a(_udivmod16.o)
 .data          0x00000000        0x0 /usr/local/msp430/bin/../lib/gcc/msp430/4.7.0/mmpy-16/libgcc.a(_udivmod16.o)
 .bss           0x00000000        0x0 /usr/local/msp430/bin/../lib/gcc/msp430/4.7.0/mmpy-16/libgcc.a(_udivmod16.o)
 .text          0x00000000        0x0 /usr/local/msp430/bin/../lib/gcc/msp430/4.7.0/mmpy-16/libgcc.a(_divmod16.o)
 .data          0x00000000        0x0 /usr/local/msp430/bin/../lib/gcc/msp430/4.7.0/mmpy-16/libgcc.a(_divmod16.o)
 .bss           0x00000000        0x0 /usr/local/msp430/bin/../lib/gcc/msp430/4.7.0/mmpy-16/libgcc.a(_divmod16.o)
 .text          0x00000000        0x0 /usr/local/msp430/bin/../lib/gcc/msp430/4.7.0/mmpy-16/libgcc.a(_udivmod32.o)
 .data          0x00000000        0x0 /usr/local/msp430/bin/../lib/gcc/msp430/4.7.0/mmpy-16/libgcc.a(_udivmod32.o)
 .bss           0x00000000        0x0 /usr/local/msp430/bin/../lib/gcc/msp430/4.7.0/mmpy-16/libgcc.a(_udivmod32.o)
 .text          0x00000000        0x0 /usr/local/msp430/bin/../lib/gcc/msp430/4.7.0/mmpy-16/libgcc.a(_divmod32.o)
 .data          0x00000000        0x0 /usr/local/msp430/bin/../lib/gcc/msp430/4.7.0/mmpy-16/libgcc.a(_divmod32.o)
 .bss           0x00000000        0x0 /usr/local/msp430/bin/../lib/gcc/msp430/4.7.0/mmpy-16/libgcc.a(_divmod32.o)
 .text          0x00000000        0x0 /usr/local/msp430/bin/../lib/gcc/msp430/4.7.0/../../../../msp430/lib/mmpy-16/libc.a(printf.o)
 .data          0x00000000        0x0 /usr/local/msp430/bin/../lib/gcc/msp430/4.7.0/../../../../msp430/lib/mmpy-16/libc.a(printf.o)
 .bss           0x00000000        0x0 /usr/local/msp430/bin/../lib/gcc/msp430/4.7.0/../../../../msp430/lib/mmpy-16/libc.a(printf.o)
 .text.vprintf  0x00000000        0xe /usr/local/msp430/bin/../lib/gcc/msp430/4.7.0/../../../../msp430/lib/mmpy-16/libc.a(printf.o)
 .text          0x00000000        0x0 /usr/local/msp430/bin/../lib/gcc/msp430/4.7.0/../../../../msp430/lib/mmpy-16/libc.a(sprintf.o)
 .data          0x00000000        0x0 /usr/local/msp430/bin/../lib/gcc/msp430/4.7.0/../../../../msp430/lib/mmpy-16/libc.a(sprintf.o)
 .bss           0x00000000        0x0 /usr/local/msp430/bin/../lib/gcc/msp430/4.7.0/../../../../msp430/lib/mmpy-16/libc.a(sprintf.o)
 .text.sprintf  0x00000000       0x1c /usr/local/msp430/bin/../lib/gcc/msp430/4.7.0/../../../../msp430/lib/mmpy-16/libc.a(sprintf.o)
 .text.vsprintf
                0x00000000       0x16 /usr/local/msp430/bin/../lib/gcc/msp430/4.7.0/../../../../msp430/lib/mmpy-16/libc.a(sprintf.o)
 .text.vsnprintf
                0x00000000       0x12 /usr/local/msp430/bin/../lib/gcc/msp430/4.7.0/../../../../msp430/lib/mmpy-16/libc.a(sprintf.o)
 .text          0x00000000        0x0 /usr/local/msp430/bin/../lib/gcc/msp430/4.7.0/../../../../msp430/lib/mmpy-16/libc.a(vuprintf.o)
 .data          0x00000000        0x0 /usr/local/msp430/bin/../lib/gcc/msp430/4.7.0/../../../../msp430/lib/mmpy-16/libc.a(vuprintf.o)
 .bss           0x00000000        0x0 /usr/local/msp430/bin/../lib/gcc/msp430/4.7.0/../../../../msp430/lib/mmpy-16/libc.a(vuprintf.o)
 .text          0x00000000        0x0 /usr/local/msp430/bin/../lib/gcc/msp430/4.7.0/../../../../msp430/lib/mmpy-16/libc.a(puts.o)
 .data          0x00000000        0x0 /usr/local/msp430/bin/../lib/gcc/msp430/4.7.0/../../../../msp430/lib/mmpy-16/libc.a(puts.o)
 .bss           0x00000000        0x0 /usr/local/msp430/bin/../lib/gcc/msp430/4.7.0/../../../../msp430/lib/mmpy-16/libc.a(puts.o)
 .text          0x00000000        0x0 /usr/local/msp430/bin/../lib/gcc/msp430/4.7.0/../../../../msp430/lib/mmpy-16/libc.a(rand.o)
 .data          0x00000000        0x0 /usr/local/msp430/bin/../lib/gcc/msp430/4.7.0/../../../../msp430/lib/mmpy-16/libc.a(rand.o)
 .bss           0x00000000        0x0 /usr/local/msp430/bin/../lib/gcc/msp430/4.7.0/../../../../msp430/lib/mmpy-16/libc.a(rand.o)
 .text.rand_r   0x00000000       0x24 /usr/local/msp430/bin/../lib/gcc/msp430/4.7.0/../../../../msp430/lib/mmpy-16/libc.a(rand.o)
 .text          0x00000000        0x0 /usr/local/msp430/bin/../lib/gcc/msp430/4.7.0/../../../../msp430/lib/mmpy-16/libc.a(strcmp.o)
 .data          0x00000000        0x0 /usr/local/msp430/bin/../lib/gcc/msp430/4.7.0/../../../../msp430/lib/mmpy-16/libc.a(strcmp.o)
 .bss           0x00000000        0x0 /usr/local/msp430/bin/../lib/gcc/msp430/4.7.0/../../../../msp430/lib/mmpy-16/libc.a(strcmp.o)
 .text          0x00000000        0x0 /usr/local/msp430/bin/../lib/gcc/msp430/4.7.0/../../../../msp430/lib/mmpy-16/libc.a(strncmp.o)
 .data          0x00000000        0x0 /usr/local/msp430/bin/../lib/gcc/msp430/4.7.0/../../../../msp430/lib/mmpy-16/libc.a(strncmp.o)
 .bss           0x00000000        0x0 /usr/local/msp430/bin/../lib/gcc/msp430/4.7.0/../../../../msp430/lib/mmpy-16/libc.a(strncmp.o)
 .text.strncmp  0x00000000       0x2a /usr/local/msp430/bin/../lib/gcc/msp430/4.7.0/../../../../msp430/lib/mmpy-16/libc.a(strncmp.o)
 .debug_frame   0x00000000       0x24 /usr/local/msp430/bin/../lib/gcc/msp430/4.7.0/../../../../msp430/lib/mmpy-16/libc.a(strncmp.o)
 .debug_info    0x00000000       0xc2 /usr/local/msp430/bin/../lib/gcc/msp430/4.7.0/../../../../msp430/lib/mmpy-16/libc.a(strncmp.o)
 .debug_abbrev  0x00000000       0x72 /usr/local/msp430/bin/../lib/gcc/msp430/4.7.0/../../../../msp430/lib/mmpy-16/libc.a(strncmp.o)
 .debug_loc     0x00000000       0x4a /usr/local/msp430/bin/../lib/gcc/msp430/4.7.0/../../../../msp430/lib/mmpy-16/libc.a(strncmp.o)
 .debug_aranges
                0x00000000       0x14 /usr/local/msp430/bin/../lib/gcc/msp430/4.7.0/../../../../msp430/lib/mmpy-16/libc.a(strncmp.o)
 .debug_ranges  0x00000000        0x8 /usr/local/msp430/bin/../lib/gcc/msp430/4.7.0/../../../../msp430/lib/mmpy-16/libc.a(strncmp.o)
 .debug_line    0x00000000       0x8f /usr/local/msp430/bin/../lib/gcc/msp430/4.7.0/../../../../msp430/lib/mmpy-16/libc.a(strncmp.o)
 .debug_str     0x00000000      0x100 /usr/local/msp430/bin/../lib/gcc/msp430/4.7.0/../../../../msp430/lib/mmpy-16/libc.a(strncmp.o)
 .comment       0x00000000       0x31 /usr/local/msp430/bin/../lib/gcc/msp430/4.7.0/../../../../msp430/lib/mmpy-16/libc.a(strncmp.o)
 .text          0x00000000        0x0 /usr/local/msp430/bin/../lib/gcc/msp430/4.7.0/../../../../msp430/lib/mmpy-16/libc.a(memcmp.o)
 .data          0x00000000        0x0 /usr/local/msp430/bin/../lib/gcc/msp430/4.7.0/../../../../msp430/lib/mmpy-16/libc.a(memcmp.o)
 .bss           0x00000000        0x0 /usr/local/msp430/bin/../lib/gcc/msp430/4.7.0/../../../../msp430/lib/mmpy-16/libc.a(memcmp.o)
 .text          0x00000000        0x0 /usr/local/msp430/bin/../lib/gcc/msp430/4.7.0/../../../../msp430/lib/mmpy-16/libc.a(strcpy.o)
 .data          0x00000000        0x0 /usr/local/msp430/bin/../lib/gcc/msp430/4.7.0/../../../../msp430/lib/mmpy-16/libc.a(strcpy.o)
 .bss           0x00000000        0x0 /usr/local/msp430/bin/../lib/gcc/msp430/4.7.0/../../../../msp430/lib/mmpy-16/libc.a(strcpy.o)
 .text.strcpy   0x00000000       0x14 /usr/local/msp430/bin/../lib/gcc/msp430/4.7.0/../../../../msp430/lib/mmpy-16/libc.a(strcpy.o)
 .debug_frame   0x00000000       0x1e /usr/local/msp430/bin/../lib/gcc/msp430/4.7.0/../../../../msp430/lib/mmpy-16/libc.a(strcpy.o)
 .debug_info    0x00000000       0xbd /usr/local/msp430/bin/../lib/gcc/msp430/4.7.0/../../../../msp430/lib/mmpy-16/libc.a(strcpy.o)
 .debug_abbrev  0x00000000       0x83 /usr/local/msp430/bin/../lib/gcc/msp430/4.7.0/../../../../msp430/lib/mmpy-16/libc.a(strcpy.o)
 .debug_loc     0x00000000       0x24 /usr/local/msp430/bin/../lib/gcc/msp430/4.7.0/../../../../msp430/lib/mmpy-16/libc.a(strcpy.o)
 .debug_aranges
                0x00000000       0x14 /usr/local/msp430/bin/../lib/gcc/msp430/4.7.0/../../../../msp430/lib/mmpy-16/libc.a(strcpy.o)
 .debug_ranges  0x00000000        0x8 /usr/local/msp430/bin/../lib/gcc/msp430/4.7.0/../../../../msp430/lib/mmpy-16/libc.a(strcpy.o)
 .debug_line    0x00000000       0x4d /usr/local/msp430/bin/../lib/gcc/msp430/4.7.0/../../../../msp430/lib/mmpy-16/libc.a(strcpy.o)
 .debug_str     0x00000000      0x101 /usr/local/msp430/bin/../lib/gcc/msp430/4.7.0/../../../../msp430/lib/mmpy-16/libc.a(strcpy.o)
 .comment       0x00000000       0x31 /usr/local/msp430/bin/../lib/gcc/msp430/4.7.0/../../../../msp430/lib/mmpy-16/libc.a(strcpy.o)
 .text          0x00000000        0x0 /usr/local/msp430/bin/../lib/gcc/msp430/4.7.0/../../../../msp430/lib/mmpy-16/libc.a(memcpy.o)
 .data          0x00000000        0x0 /usr/local/msp430/bin/../lib/gcc/msp430/4.7.0/../../../../msp430/lib/mmpy-16/libc.a(memcpy.o)
 .bss           0x00000000        0x0 /usr/local/msp430/bin/../lib/gcc/msp430/4.7.0/../../../../msp430/lib/mmpy-16/libc.a(memcpy.o)
 .text          0x00000000        0x0 /usr/local/msp430/bin/../lib/gcc/msp430/4.7.0/../../../../msp430/lib/mmpy-16/libc.a(memmove.o)
 .data          0x00000000        0x0 /usr/local/msp430/bin/../lib/gcc/msp430/4.7.0/../../../../msp430/lib/mmpy-16/libc.a(memmove.o)
 .bss           0x00000000        0x0 /usr/local/msp430/bin/../lib/gcc/msp430/4.7.0/../../../../msp430/lib/mmpy-16/libc.a(memmove.o)
 .text          0x00000000        0x0 /usr/local/msp430/bin/../lib/gcc/msp430/4.7.0/../../../../msp430/lib/mmpy-16/libc.a(memset.o)
 .data          0x00000000        0x0 /usr/local/msp430/bin/../lib/gcc/msp430/4.7.0/../../../../msp430/lib/mmpy-16/libc.a(memset.o)
 .bss           0x00000000        0x0 /usr/local/msp430/bin/../lib/gcc/msp430/4.7.0/../../../../msp430/lib/mmpy-16/libc.a(memset.o)
 .text          0x00000000        0x0 /usr/local/msp430/bin/../lib/gcc/msp430/4.7.0/mmpy-16/libgcc.a(_udivmod64.o)
 .data          0x00000000        0x0 /usr/local/msp430/bin/../lib/gcc/msp430/4.7.0/mmpy-16/libgcc.a(_udivmod64.o)
 .bss           0x00000000        0x0 /usr/local/msp430/bin/../lib/gcc/msp430/4.7.0/mmpy-16/libgcc.a(_udivmod64.o)
 .text          0x00000000        0x0 /usr/local/msp430/bin/../lib/gcc/msp430/4.7.0/mmpy-16/libcrt0.a(_reset_vector__.o)
 .data          0x00000000        0x0 /usr/local/msp430/bin/../lib/gcc/msp430/4.7.0/mmpy-16/libcrt0.a(_reset_vector__.o)
 .bss           0x00000000        0x0 /usr/local/msp430/bin/../lib/gcc/msp430/4.7.0/mmpy-16/libcrt0.a(_reset_vector__.o)
 .text          0x00000000        0x0 /usr/local/msp430/bin/../lib/gcc/msp430/4.7.0/mmpy-16/libcrt0.a(__watchdog_support.o)
 .data          0x00000000        0x0 /usr/local/msp430/bin/../lib/gcc/msp430/4.7.0/mmpy-16/libcrt0.a(__watchdog_support.o)
 .bss           0x00000000        0x0 /usr/local/msp430/bin/../lib/gcc/msp430/4.7.0/mmpy-16/libcrt0.a(__watchdog_support.o)
 .text          0x00000000        0x0 /usr/local/msp430/bin/../lib/gcc/msp430/4.7.0/mmpy-16/libcrt0.a(__init_stack.o)
 .data          0x00000000        0x0 /usr/local/msp430/bin/../lib/gcc/msp430/4.7.0/mmpy-16/libcrt0.a(__init_stack.o)
 .bss           0x00000000        0x0 /usr/local/msp430/bin/../lib/gcc/msp430/4.7.0/mmpy-16/libcrt0.a(__init_stack.o)
 .text          0x00000000        0x0 /usr/local/msp430/bin/../lib/gcc/msp430/4.7.0/mmpy-16/libcrt0.a(__low_level_init.o)
 .data          0x00000000        0x0 /usr/local/msp430/bin/../lib/gcc/msp430/4.7.0/mmpy-16/libcrt0.a(__low_level_init.o)
 .bss           0x00000000        0x0 /usr/local/msp430/bin/../lib/gcc/msp430/4.7.0/mmpy-16/libcrt0.a(__low_level_init.o)
 .text          0x00000000        0x0 /usr/local/msp430/bin/../lib/gcc/msp430/4.7.0/mmpy-16/libcrt0.a(_copy_data.o)
 .data          0x00000000        0x0 /usr/local/msp430/bin/../lib/gcc/msp430/4.7.0/mmpy-16/libcrt0.a(_copy_data.o)
 .bss           0x00000000        0x0 /usr/local/msp430/bin/../lib/gcc/msp430/4.7.0/mmpy-16/libcrt0.a(_copy_data.o)
 .text          0x00000000        0x0 /usr/local/msp430/bin/../lib/gcc/msp430/4.7.0/mmpy-16/libcrt0.a(_clear_bss.o)
 .data          0x00000000        0x0 /usr/local/msp430/bin/../lib/gcc/msp430/4.7.0/mmpy-16/libcrt0.a(_clear_bss.o)
 .bss           0x00000000        0x0 /usr/local/msp430/bin/../lib/gcc/msp430/4.7.0/mmpy-16/libcrt0.a(_clear_bss.o)
 .text          0x00000000        0x0 /usr/local/msp430/bin/../lib/gcc/msp430/4.7.0/mmpy-16/libcrt0.a(__stop_progExec__.o)
 .data          0x00000000        0x0 /usr/local/msp430/bin/../lib/gcc/msp430/4.7.0/mmpy-16/libcrt0.a(__stop_progExec__.o)
 .bss           0x00000000        0x0 /usr/local/msp430/bin/../lib/gcc/msp430/4.7.0/mmpy-16/libcrt0.a(__stop_progExec__.o)
 .text          0x00000000        0x0 /usr/local/msp430/bin/../lib/gcc/msp430/4.7.0/mmpy-16/libcrt0.a(_endless_loop__.o)
 .data          0x00000000        0x0 /usr/local/msp430/bin/../lib/gcc/msp430/4.7.0/mmpy-16/libcrt0.a(_endless_loop__.o)
 .bss           0x00000000        0x0 /usr/local/msp430/bin/../lib/gcc/msp430/4.7.0/mmpy-16/libcrt0.a(_endless_loop__.o)
 .text          0x00000000        0x0 /usr/local/msp430/bin/../lib/gcc/msp430/4.7.0/mmpy-16/libcrt0.a(_unexpected_.o)
 .data          0x00000000        0x0 /usr/local/msp430/bin/../lib/gcc/msp430/4.7.0/mmpy-16/libcrt0.a(_unexpected_.o)
 .bss           0x00000000        0x0 /usr/local/msp430/bin/../lib/gcc/msp430/4.7.0/mmpy-16/libcrt0.a(_unexpected_.o)

Memory Configuration

Name             Origin             Length             Attributes
sfr              0x00000000         0x00000010
peripheral_8bit  0x00000010         0x000000f0
peripheral_16bit 0x00000100         0x00000100
ram_mirror       0x00000200         0x00000800         xw
infomem          0x00001000         0x00000100
infob            0x00001000         0x00000080
infoa            0x00001080         0x00000080
ram              0x00001100         0x00002800         xw
rom              0x00004000         0x0000bfe0         xr
vectors          0x0000ffe0         0x00000020
bsl              0x00000000         0x00000000
infoc            0x00000000         0x00000000
infod            0x00000000         0x00000000
ram2             0x00000000         0x00000000         xw
usbram           0x00000000         0x00000000         xw
far_rom          0x00000000         0x00000000
*default*        0x00000000         0xffffffff

Linker script and memory map

LOAD /usr/local/msp430/bin/../lib/gcc/msp430/4.7.0/mmpy-16/crt0ivtbl16.o
                0x00003022                _stack = _end
LOAD udp-client.o
LOAD build/sky/obj/contiki-main.o
LOAD build/sky/contiki-ng-sky.a
LOAD /usr/local/msp430/bin/../lib/gcc/msp430/4.7.0/mmpy-16/libgcc.a
LOAD /usr/local/msp430/bin/../lib/gcc/msp430/4.7.0/../../../../msp430/lib/mmpy-16/libc.a
LOAD /usr/local/msp430/bin/../lib/gcc/msp430/4.7.0/mmpy-16/libgcc.a
LOAD /usr/local/msp430/bin/../lib/gcc/msp430/4.7.0/mmpy-16/libcrt0.a
                0x00000080                PROVIDE (__info_segment_size, 0x80)
                0x00001000                PROVIDE (__infob, 0x1000)
                0x00001080                PROVIDE (__infoa, 0x1080)
                0x00000000                __IE1 = 0x0
                0x00000002                __IFG1 = 0x2
                0x00000004                __ME1 = 0x4
                0x00000001                __IE2 = 0x1
                0x00000003                __IFG2 = 0x3
                0x00000005                __ME2 = 0x5
                0x00000120                __WDTCTL = 0x120
                0x00000130                __MPY = 0x130
                0x00000132                __MPYS = 0x132
                0x00000134                __MAC = 0x134
                0x00000136                __MACS = 0x136
                0x00000138                __OP2 = 0x138
                0x0000013a                __RESLO = 0x13a
                0x0000013c                __RESHI = 0x13c
                0x0000013e                __SUMEXT = 0x13e
                0x00000020                __P1IN = 0x20
                0x00000021                __P1OUT = 0x21
                0x00000022                __P1DIR = 0x22
                0x00000023                __P1IFG = 0x23
                0x00000024                __P1IES = 0x24
                0x00000025                __P1IE = 0x25
                0x00000026                __P1SEL = 0x26
                0x00000028                __P2IN = 0x28
                0x00000029                __P2OUT = 0x29
                0x0000002a                __P2DIR = 0x2a
                0x0000002b                __P2IFG = 0x2b
                0x0000002c                __P2IES = 0x2c
                0x0000002d                __P2IE = 0x2d
                0x0000002e                __P2SEL = 0x2e
                0x00000018                __P3IN = 0x18
                0x00000019                __P3OUT = 0x19
                0x0000001a                __P3DIR = 0x1a
                0x0000001b                __P3SEL = 0x1b
                0x0000001c                __P4IN = 0x1c
                0x0000001d                __P4OUT = 0x1d
                0x0000001e                __P4DIR = 0x1e
                0x0000001f                __P4SEL = 0x1f
                0x00000030                __P5IN = 0x30
                0x00000031                __P5OUT = 0x31
                0x00000032                __P5DIR = 0x32
                0x00000033                __P5SEL = 0x33
                0x00000034                __P6IN = 0x34
                0x00000035                __P6OUT = 0x35
                0x00000036                __P6DIR = 0x36
                0x00000037                __P6SEL = 0x37
                0x00000070                __U0CTL = 0x70
                0x00000071                __U0TCTL = 0x71
                0x00000072                __U0RCTL = 0x72
                0x00000073                __U0MCTL = 0x73
                0x00000074                __U0BR0 = 0x74
                0x00000075                __U0BR1 = 0x75
                0x00000076                __U0RXBUF = 0x76
                0x00000077                __U0TXBUF = 0x77
                0x00000078                __U1CTL = 0x78
                0x00000079                __U1TCTL = 0x79
                0x0000007a                __U1RCTL = 0x7a
                0x0000007b                __U1MCTL = 0x7b
                0x0000007c                __U1BR0 = 0x7c
                0x0000007d                __U1BR1 = 0x7d
                0x0000007e                __U1RXBUF = 0x7e
                0x0000007f                __U1TXBUF = 0x7f
                0x00000050                __I2CIE = 0x50
                0x00000051                __I2CIFG = 0x51
                0x00000052                __I2CNDAT = 0x52
                0x00000071                __I2CTCTL = 0x71
                0x00000072                __I2CDCTL = 0x72
                0x00000073                __I2CPSC = 0x73
                0x00000074                __I2CSCLH = 0x74
                0x00000075                __I2CSCLL = 0x75
                0x00000076                __I2CDRB = 0x76
                0x00000076                __I2CDRW = 0x76
                0x00000118                __I2COA = 0x118
                0x0000011a                __I2CSA = 0x11a
                0x0000011c                __I2CIV = 0x11c
                0x0000012e                __TAIV = 0x12e
                0x00000160                __TACTL = 0x160
                0x00000162                __TACCTL0 = 0x162
                0x00000164                __TACCTL1 = 0x164
                0x00000166                __TACCTL2 = 0x166
                0x00000170                __TAR = 0x170
                0x00000172                __TACCR0 = 0x172
                0x00000174                __TACCR1 = 0x174
                0x00000176                __TACCR2 = 0x176
                0x0000011e                __TBIV = 0x11e
                0x00000180                __TBCTL = 0x180
                0x00000182                __TBCCTL0 = 0x182
                0x00000184                __TBCCTL1 = 0x184
                0x00000186                __TBCCTL2 = 0x186
                0x00000188                __TBCCTL3 = 0x188
                0x0000018a                __TBCCTL4 = 0x18a
                0x0000018c                __TBCCTL5 = 0x18c
                0x0000018e                __TBCCTL6 = 0x18e
                0x00000190                __TBR = 0x190
                0x00000192                __TBCCR0 = 0x192
                0x00000194                __TBCCR1 = 0x194
                0x00000196                __TBCCR2 = 0x196
                0x00000198                __TBCCR3 = 0x198
                0x0000019a                __TBCCR4 = 0x19a
                0x0000019c                __TBCCR5 = 0x19c
                0x0000019e                __TBCCR6 = 0x19e
                0x00000056                __DCOCTL = 0x56
                0x00000057                __BCSCTL1 = 0x57
                0x00000058                __BCSCTL2 = 0x58
                0x00000055                __SVSCTL = 0x55
                0x00000128                __FCTL1 = 0x128
                0x0000012a                __FCTL2 = 0x12a
                0x0000012c                __FCTL3 = 0x12c
                0x00000059                __CACTL1 = 0x59
                0x0000005a                __CACTL2 = 0x5a
                0x0000005b                __CAPD = 0x5b
                0x000001a0                __ADC12CTL0 = 0x1a0
                0x000001a2                __ADC12CTL1 = 0x1a2
                0x000001a4                __ADC12IFG = 0x1a4
                0x000001a6                __ADC12IE = 0x1a6
                0x000001a8                __ADC12IV = 0x1a8
                0x00000140                __ADC12MEM0 = 0x140
                0x00000142                __ADC12MEM1 = 0x142
                0x00000144                __ADC12MEM2 = 0x144
                0x00000146                __ADC12MEM3 = 0x146
                0x00000148                __ADC12MEM4 = 0x148
                0x0000014a                __ADC12MEM5 = 0x14a
                0x0000014c                __ADC12MEM6 = 0x14c
                0x0000014e                __ADC12MEM7 = 0x14e
                0x00000150                __ADC12MEM8 = 0x150
                0x00000152                __ADC12MEM9 = 0x152
                0x00000154                __ADC12MEM10 = 0x154
                0x00000156                __ADC12MEM11 = 0x156
                0x00000158                __ADC12MEM12 = 0x158
                0x0000015a                __ADC12MEM13 = 0x15a
                0x0000015c                __ADC12MEM14 = 0x15c
                0x0000015e                __ADC12MEM15 = 0x15e
                0x00000080                __ADC12MCTL0 = 0x80
                0x00000081                __ADC12MCTL1 = 0x81
                0x00000082                __ADC12MCTL2 = 0x82
                0x00000083                __ADC12MCTL3 = 0x83
                0x00000084                __ADC12MCTL4 = 0x84
                0x00000085                __ADC12MCTL5 = 0x85
                0x00000086                __ADC12MCTL6 = 0x86
                0x00000087                __ADC12MCTL7 = 0x87
                0x00000088                __ADC12MCTL8 = 0x88
                0x00000089                __ADC12MCTL9 = 0x89
                0x0000008a                __ADC12MCTL10 = 0x8a
                0x0000008b                __ADC12MCTL11 = 0x8b
                0x0000008c                __ADC12MCTL12 = 0x8c
                0x0000008d                __ADC12MCTL13 = 0x8d
                0x0000008e                __ADC12MCTL14 = 0x8e
                0x0000008f                __ADC12MCTL15 = 0x8f
                0x000001c0                __DAC12_0CTL = 0x1c0
                0x000001c2                __DAC12_1CTL = 0x1c2
                0x000001c8                __DAC12_0DAT = 0x1c8
                0x000001ca                __DAC12_1DAT = 0x1ca
                0x00000122                __DMACTL0 = 0x122
                0x00000124                __DMACTL1 = 0x124
                0x000001e0                __DMA0CTL = 0x1e0
                0x000001e8                __DMA1CTL = 0x1e8
                0x000001f0                __DMA2CTL = 0x1f0
                0x000001e2                __DMA0SA = 0x1e2
                0x000001e4                __DMA0DA = 0x1e4
                0x000001e6                __DMA0SZ = 0x1e6
                0x000001ea                __DMA1SA = 0x1ea
                0x000001ec                __DMA1DA = 0x1ec
                0x000001ee                __DMA1SZ = 0x1ee
                0x000001f2                __DMA2SA = 0x1f2
                0x000001f4                __DMA2DA = 0x1f4
                0x000001f6                __DMA2SZ = 0x1f6

.hash
 *(.hash)

.dynsym
 *(.dynsym)

.dynstr
 *(.dynstr)

.gnu.version
 *(.gnu.version)

.gnu.version_d
 *(.gnu.version_d)

.gnu.version_r
 *(.gnu.version_r)

.rel.init
 *(.rel.init)

.rela.init
 *(.rela.init)

.rel.fini
 *(.rel.fini)

.rela.fini
 *(.rela.fini)

.rel.text
 *(.rel.text .rel.text.* .rel.gnu.linkonce.t.*)

.rela.text
 *(.rela.text .rela.text.* .rela.gnu.linkonce.t.*)

.rel.rodata
 *(.rel.rodata .rel.rodata.* .rel.gnu.linkonce.r.*)

.rela.rodata
 *(.rela.rodata .rela.rodata.* .rela.gnu.linkonce.r.*)

.rel.data
 *(.rel.data .rel.data.* .rel.gnu.linkonce.d.*)

.rela.data
 *(.rela.data .rela.data.* .rela.gnu.linkonce.d.*)

.rel.bss
 *(.rel.bss .rel.bss.* .rel.gnu.linkonce.b.*)

.rela.bss
 *(.rela.bss .rela.bss.* .rela.gnu.linkonce.b.*)

.rel.ctors
 *(.rel.ctors)

.rela.ctors
 *(.rela.ctors)

.rel.dtors
 *(.rel.dtors)

.rela.dtors
 *(.rela.dtors)

.rel.got
 *(.rel.got)

.rela.got
 *(.rela.got)

.rel.plt
 *(.rel.plt)

.rela.plt
 *(.rela.plt)

.text           0x00004000     0xa360
                0x00004000                . = ALIGN (0x2)
 *(.init .init.*)
 *(.init0)
 .init0         0x00004000        0x0 /usr/local/msp430/bin/../lib/gcc/msp430/4.7.0/mmpy-16/libcrt0.a(_reset_vector__.o)
                0x00004000                _reset_vector__
 *(.init1)
 .init1         0x00004000        0xc /usr/local/msp430/bin/../lib/gcc/msp430/4.7.0/mmpy-16/libcrt0.a(__watchdog_support.o)
                0x00004000                __watchdog_support
 *(.init2)
 .init2         0x0000400c        0x4 /usr/local/msp430/bin/../lib/gcc/msp430/4.7.0/mmpy-16/libcrt0.a(__init_stack.o)
                0x0000400c                __init_stack
 *(.init3)
 .init3         0x00004010        0x0 /usr/local/msp430/bin/../lib/gcc/msp430/4.7.0/mmpy-16/libcrt0.a(__low_level_init.o)
                0x00004010                __low_level_init
 *(.init4)
 .init4         0x00004010       0x18 /usr/local/msp430/bin/../lib/gcc/msp430/4.7.0/mmpy-16/libcrt0.a(_copy_data.o)
                0x00004010                __do_copy_data
 .init4         0x00004028       0x16 /usr/local/msp430/bin/../lib/gcc/msp430/4.7.0/mmpy-16/libcrt0.a(_clear_bss.o)
                0x00004028                __do_clear_bss
 *(.init5)
 *(.init6)
 *(.init7)
 *(.init8)
 *(.init9)
 .init9         0x0000403e      0x22e build/sky/obj/contiki-main.o
                0x0000403e                main
 *(.fini9)
 .fini9         0x0000426c        0x0 /usr/local/msp430/bin/../lib/gcc/msp430/4.7.0/mmpy-16/libcrt0.a(__stop_progExec__.o)
                0x0000426c                __stop_progExec__
 *(.fini8)
 *(.fini7)
 *(.fini6)
 *(.fini5)
 *(.fini4)
 *(.fini3)
 *(.fini2)
 *(.fini1)
 *(.fini0)
 .fini0         0x0000426c        0x6 /usr/local/msp430/bin/../lib/gcc/msp430/4.7.0/mmpy-16/libcrt0.a(_endless_loop__.o)
                0x0000426c                _endless_loop__
 *(.fini .fini.*)
                0x00004272                . = ALIGN (0x2)
                0x00004272                __ctors_start = .
 *(.ctors)
                0x00004272                __ctors_end = .
                0x00004272                __dtors_start = .
 *(.dtors)
                0x00004272                __dtors_end = .
                0x00004272                . = ALIGN (0x2)
 *(.text .text.* .gnu.linkonce.t.*)
 .text          0x00004272        0x4 /usr/local/msp430/bin/../lib/gcc/msp430/4.7.0/mmpy-16/crt0ivtbl16.o
                0x00004272                __isr_14
                0x00004272                __isr_11
                0x00004272                __isr_2
                0x00004272                __isr_7
                0x00004272                __isr_0
                0x00004272                __isr_8
                0x00004272                __isr_3
                0x00004272                __isr_12
                0x00004272                __isr_13
                0x00004272                __isr_9
 .text.udp_rx_callback
                0x00004276       0x3e udp-client.o
 .text.process_thread_udp_client_process
                0x000042b4      0x124 udp-client.o
 .text.putchar  0x000043d8       0x10 build/sky/contiki-ng-sky.a(uart1-putchar.o)
                0x000043d8                putchar
 .text.platform_init_stage_one
                0x000043e8       0x12 build/sky/contiki-ng-sky.a(platform.o)
                0x000043e8                platform_init_stage_one
 .text.platform_init_stage_two
                0x000043fa       0x64 build/sky/contiki-ng-sky.a(platform.o)
                0x000043fa                platform_init_stage_two
 .text.platform_init_stage_three
                0x0000445e       0x7a build/sky/contiki-ng-sky.a(platform.o)
                0x0000445e                platform_init_stage_three
 .text.platform_idle
                0x000044d8       0x54 build/sky/contiki-ng-sky.a(platform.o)
                0x000044d8                platform_idle
 .text.msp430_init_dco
                0x0000452c       0x82 build/sky/contiki-ng-sky.a(msp430.o)
                0x0000452c                msp430_init_dco
 .text.msp430_add_lpm_req
                0x000045ae        0xc build/sky/contiki-ng-sky.a(msp430.o)
                0x000045ae                msp430_add_lpm_req
 .text.msp430_cpu_init
                0x000045ba       0x2a build/sky/contiki-ng-sky.a(msp430.o)
                0x000045ba                msp430_cpu_init
 .text.splhigh_
                0x000045e4        0x8 build/sky/contiki-ng-sky.a(msp430.o)
                0x000045e4                splhigh_
 .text.msp430_sync_dco
                0x000045ec       0x6c build/sky/contiki-ng-sky.a(msp430.o)
                0x000045ec                msp430_sync_dco
 .text.timera1  0x00004658       0xdc build/sky/contiki-ng-sky.a(clock.o)
                0x00004658                __isr_5
                0x00004658                timera1
 .text.clock_time
                0x00004734       0x1a build/sky/contiki-ng-sky.a(clock.o)
                0x00004734                clock_time
 .text.clock_init
                0x0000474e       0x28 build/sky/contiki-ng-sky.a(clock.o)
                0x0000474e                clock_init
 .text.clock_delay
                0x00004776        0xc build/sky/contiki-ng-sky.a(clock.o)
                0x00004776                clock_delay
 .text.clock_seconds
                0x00004782       0x1a build/sky/contiki-ng-sky.a(clock.o)
                0x00004782                clock_seconds
 .text.leds_init
                0x0000479c        0x6 build/sky/contiki-ng-sky.a(leds.o)
                0x0000479c                leds_init
 .text.leds_on  0x000047a2       0x12 build/sky/contiki-ng-sky.a(leds.o)
                0x000047a2                leds_on
 .text.leds_off
                0x000047b4       0x12 build/sky/contiki-ng-sky.a(leds.o)
                0x000047b4                leds_off
 .text.leds_arch_init
                0x000047c6        0xe build/sky/contiki-ng-sky.a(leds-arch.o)
                0x000047c6                leds_arch_init
 .text.leds_arch_get
                0x000047d4       0x34 build/sky/contiki-ng-sky.a(leds-arch.o)
                0x000047d4                leds_arch_get
 .text.leds_arch_set
                0x00004808       0x3e build/sky/contiki-ng-sky.a(leds-arch.o)
                0x00004808                leds_arch_set
 .text.watchdog_interrupt
                0x00004846        0x6 build/sky/contiki-ng-sky.a(watchdog.o)
                0x00004846                __isr_10
                0x00004846                watchdog_interrupt
 .text.watchdog_start
                0x0000484c       0x14 build/sky/contiki-ng-sky.a(watchdog.o)
                0x0000484c                watchdog_start
 .text.watchdog_periodic
                0x00004860       0x12 build/sky/contiki-ng-sky.a(watchdog.o)
                0x00004860                watchdog_periodic
 .text.watchdog_stop
                0x00004872       0x16 build/sky/contiki-ng-sky.a(watchdog.o)
                0x00004872                watchdog_stop
 .text.watchdog_init
                0x00004888       0x12 build/sky/contiki-ng-sky.a(watchdog.o)
                0x00004888                watchdog_init
 .text.autostart_start
                0x0000489a       0x16 build/sky/contiki-ng-sky.a(autostart.o)
                0x0000489a                autostart_start
 .text.process_thread_ctimer_process
                0x000048b0       0xa8 build/sky/contiki-ng-sky.a(ctimer.o)
 .text.ctimer_init
                0x00004958       0x18 build/sky/contiki-ng-sky.a(ctimer.o)
                0x00004958                ctimer_init
 .text.ctimer_set_with_process
                0x00004970       0x4e build/sky/contiki-ng-sky.a(ctimer.o)
                0x00004970                ctimer_set_with_process
 .text.ctimer_set
                0x000049be       0x10 build/sky/contiki-ng-sky.a(ctimer.o)
                0x000049be                ctimer_set
 .text.ctimer_reset
                0x000049ce       0x30 build/sky/contiki-ng-sky.a(ctimer.o)
                0x000049ce                ctimer_reset
 .text.ctimer_stop
                0x000049fe       0x28 build/sky/contiki-ng-sky.a(ctimer.o)
                0x000049fe                ctimer_stop
 .text.ctimer_expired
                0x00004a26       0x30 build/sky/contiki-ng-sky.a(ctimer.o)
                0x00004a26                ctimer_expired
 .text.energest_init
                0x00004a56        0x2 build/sky/contiki-ng-sky.a(energest.o)
                0x00004a56                energest_init
 .text.energest_flush
                0x00004a58        0x2 build/sky/contiki-ng-sky.a(energest.o)
                0x00004a58                energest_flush
 .text.update_time
                0x00004a5a       0x78 build/sky/contiki-ng-sky.a(etimer.o)
 .text.etimer_request_poll
                0x00004ad2        0xa build/sky/contiki-ng-sky.a(etimer.o)
                0x00004ad2                etimer_request_poll
 .text.process_thread_etimer_process
                0x00004adc       0xcc build/sky/contiki-ng-sky.a(etimer.o)
 .text.add_timer
                0x00004ba8       0x40 build/sky/contiki-ng-sky.a(etimer.o)
 .text.etimer_set
                0x00004be8       0x12 build/sky/contiki-ng-sky.a(etimer.o)
                0x00004be8                etimer_set
 .text.etimer_reset
                0x00004bfa       0x12 build/sky/contiki-ng-sky.a(etimer.o)
                0x00004bfa                etimer_reset
 .text.etimer_expired
                0x00004c0c        0xe build/sky/contiki-ng-sky.a(etimer.o)
                0x00004c0c                etimer_expired
 .text.etimer_pending
                0x00004c1a        0xc build/sky/contiki-ng-sky.a(etimer.o)
                0x00004c1a                etimer_pending
 .text.etimer_next_expiration_time
                0x00004c26       0x16 build/sky/contiki-ng-sky.a(etimer.o)
                0x00004c26                etimer_next_expiration_time
 .text.etimer_stop
                0x00004c3c       0x3e build/sky/contiki-ng-sky.a(etimer.o)
                0x00004c3c                etimer_stop
 .text.log_6addr
                0x00004c7a       0x32 build/sky/contiki-ng-sky.a(log.o)
                0x00004c7a                log_6addr
 .text.log_lladdr
                0x00004cac       0x44 build/sky/contiki-ng-sky.a(log.o)
                0x00004cac                log_lladdr
 .text.node_id_init
                0x00004cf0       0x14 build/sky/contiki-ng-sky.a(node-id.o)
                0x00004cf0                node_id_init
 .text.call_process
                0x00004d04       0x46 build/sky/contiki-ng-sky.a(process.o)
 .text.exit_process
                0x00004d4a       0x96 build/sky/contiki-ng-sky.a(process.o)
 .text.do_poll  0x00004de0       0x30 build/sky/contiki-ng-sky.a(process.o)
 .text.process_alloc_event
                0x00004e10        0xe build/sky/contiki-ng-sky.a(process.o)
                0x00004e10                process_alloc_event
 .text.process_init
                0x00004e1e       0x18 build/sky/contiki-ng-sky.a(process.o)
                0x00004e1e                process_init
 .text.process_run
                0x00004e36       0x92 build/sky/contiki-ng-sky.a(process.o)
                0x00004e36                process_run
 .text.process_nevents
                0x00004ec8        0xe build/sky/contiki-ng-sky.a(process.o)
                0x00004ec8                process_nevents
 .text.process_post
                0x00004ed6       0x42 build/sky/contiki-ng-sky.a(process.o)
                0x00004ed6                process_post
 .text.process_post_synch
                0x00004f18       0x12 build/sky/contiki-ng-sky.a(process.o)
                0x00004f18                process_post_synch
 .text.process_start
                0x00004f2a       0x36 build/sky/contiki-ng-sky.a(process.o)
                0x00004f2a                process_start
 .text.process_poll
                0x00004f60       0x18 build/sky/contiki-ng-sky.a(process.o)
                0x00004f60                process_poll
 .text.rtimer_init
                0x00004f78        0x6 build/sky/contiki-ng-sky.a(rtimer.o)
                0x00004f78                rtimer_init
 .text.rtimer_run_next
                0x00004f7e       0x26 build/sky/contiki-ng-sky.a(rtimer.o)
                0x00004f7e                rtimer_run_next
 .text.timer_set
                0x00004fa4       0x1c build/sky/contiki-ng-sky.a(timer.o)
                0x00004fa4                timer_set
 .text.timer_expired
                0x00004fc0       0x2a build/sky/contiki-ng-sky.a(timer.o)
                0x00004fc0                timer_expired
 .text.timer_reset
                0x00004fea       0x1c build/sky/contiki-ng-sky.a(timer.o)
                0x00004fea                timer_reset
 .text.list_init
                0x00005006        0x6 build/sky/contiki-ng-sky.a(list.o)
                0x00005006                list_init
 .text.list_head
                0x0000500c        0x4 build/sky/contiki-ng-sky.a(list.o)
                0x0000500c                list_head
 .text.list_tail
                0x00005010       0x12 build/sky/contiki-ng-sky.a(list.o)
                0x00005010                list_tail
 .text.list_remove
                0x00005022       0x34 build/sky/contiki-ng-sky.a(list.o)
                0x00005022                list_remove
 .text.list_push
                0x00005056       0x1a build/sky/contiki-ng-sky.a(list.o)
                0x00005056                list_push
 .text.list_add
                0x00005070       0x2a build/sky/contiki-ng-sky.a(list.o)
                0x00005070                list_add
 .text.list_length
                0x0000509a       0x10 build/sky/contiki-ng-sky.a(list.o)
                0x0000509a                list_length
 .text.list_item_next
                0x000050aa        0xc build/sky/contiki-ng-sky.a(list.o)
                0x000050aa                list_item_next
 .text.random_init
                0x000050b6        0x6 build/sky/contiki-ng-sky.a(random.o)
                0x000050b6                random_init
 .text.random_rand
                0x000050bc        0x6 build/sky/contiki-ng-sky.a(random.o)
                0x000050bc                random_rand
 .text.linkaddr_copy
                0x000050c2        0x8 build/sky/contiki-ng-sky.a(linkaddr.o)
                0x000050c2                linkaddr_copy
 .text.linkaddr_cmp
                0x000050ca       0x12 build/sky/contiki-ng-sky.a(linkaddr.o)
                0x000050ca                linkaddr_cmp
 .text.linkaddr_set_node_addr
                0x000050dc        0xc build/sky/contiki-ng-sky.a(linkaddr.o)
                0x000050dc                linkaddr_set_node_addr
 .text.netstack_process_ip_callback
                0x000050e8       0x4e build/sky/contiki-ng-sky.a(netstack.o)
                0x000050e8                netstack_process_ip_callback
 .text.netstack_init
                0x00005136        0xe build/sky/contiki-ng-sky.a(netstack.o)
                0x00005136                netstack_init
 .text.queuebuf_init
                0x00005144       0x12 build/sky/contiki-ng-sky.a(queuebuf.o)
                0x00005144                queuebuf_init
 .text.queuebuf_numfree
                0x00005156        0xa build/sky/contiki-ng-sky.a(queuebuf.o)
                0x00005156                queuebuf_numfree
 .text.queuebuf_new_from_packetbuf
                0x00005160       0x52 build/sky/contiki-ng-sky.a(queuebuf.o)
                0x00005160                queuebuf_new_from_packetbuf
 .text.queuebuf_update_attr_from_packetbuf
                0x000051b2       0x12 build/sky/contiki-ng-sky.a(queuebuf.o)
                0x000051b2                queuebuf_update_attr_from_packetbuf
 .text.queuebuf_free
                0x000051c4       0x2a build/sky/contiki-ng-sky.a(queuebuf.o)
                0x000051c4                queuebuf_free
 .text.queuebuf_to_packetbuf
                0x000051ee       0x32 build/sky/contiki-ng-sky.a(queuebuf.o)
                0x000051ee                queuebuf_to_packetbuf
 .text.on       0x00005220        0x6 build/sky/contiki-ng-sky.a(csma.o)
 .text.off      0x00005226        0x6 build/sky/contiki-ng-sky.a(csma.o)
 .text.max_payload
                0x0000522c       0x16 build/sky/contiki-ng-sky.a(csma.o)
 .text.send_packet
                0x00005242        0x6 build/sky/contiki-ng-sky.a(csma.o)
 .text.init     0x00005248        0xa build/sky/contiki-ng-sky.a(csma.o)
 .text.input_packet
                0x00005252       0x58 build/sky/contiki-ng-sky.a(csma.o)
 .text.schedule_transmission
                0x000052aa       0x70 build/sky/contiki-ng-sky.a(csma-output.o)
 .text.tx_done  0x0000531a       0x9a build/sky/contiki-ng-sky.a(csma-output.o)
 .text.transmit_from_queue
                0x000053b4      0x1bc build/sky/contiki-ng-sky.a(csma-output.o)
 .text.csma_output_packet
                0x00005570      0x184 build/sky/contiki-ng-sky.a(csma-output.o)
                0x00005570                csma_output_packet
 .text.csma_output_init
                0x000056f4       0x1a build/sky/contiki-ng-sky.a(csma-output.o)
                0x000056f4                csma_output_init
 .text.csma_security_create_frame
                0x0000570e       0x10 build/sky/contiki-ng-sky.a(csma-security.o)
                0x0000570e                csma_security_create_frame
 .text.csma_security_parse_frame
                0x0000571e        0x6 build/sky/contiki-ng-sky.a(csma-security.o)
                0x0000571e                csma_security_parse_frame
 .text.clear_fragments
                0x00005724       0x40 build/sky/contiki-ng-sky.a(sicslowpan.o)
 .text.addr_context_lookup_by_number
                0x00005764       0x16 build/sky/contiki-ng-sky.a(sicslowpan.o)
 .text.sicslowpan_init
                0x0000577a       0x18 build/sky/contiki-ng-sky.a(sicslowpan.o)
                0x0000577a                sicslowpan_init
 .text.set_packet_attrs
                0x00005792       0x66 build/sky/contiki-ng-sky.a(sicslowpan.o)
 .text.compress_addr_64
                0x000057f8       0xae build/sky/contiki-ng-sky.a(sicslowpan.o)
 .text.addr_context_lookup_by_prefix
                0x000058a6       0x20 build/sky/contiki-ng-sky.a(sicslowpan.o)
 .text.send_packet
                0x000058c6       0x1a build/sky/contiki-ng-sky.a(sicslowpan.o)
 .text.fragment_copy_payload_and_send
                0x000058e0       0x66 build/sky/contiki-ng-sky.a(sicslowpan.o)
 .text.output   0x00005946      0x7c2 build/sky/contiki-ng-sky.a(sicslowpan.o)
 .text.packet_sent
                0x00006108       0x56 build/sky/contiki-ng-sky.a(sicslowpan.o)
 .text.store_fragment
                0x0000615e       0xc8 build/sky/contiki-ng-sky.a(sicslowpan.o)
 .text.add_fragment
                0x00006226      0x1fc build/sky/contiki-ng-sky.a(sicslowpan.o)
 .text.uncompress_addr
                0x00006422       0xb4 build/sky/contiki-ng-sky.a(sicslowpan.o)
 .text.input    0x000064d6      0x832 build/sky/contiki-ng-sky.a(sicslowpan.o)
 .text.process_thread_simple_udp_process
                0x00006d08       0xb8 build/sky/contiki-ng-sky.a(simple-udp.o)
 .text.simple_udp_sendto
                0x00006dc0       0x2c build/sky/contiki-ng-sky.a(simple-udp.o)
                0x00006dc0                simple_udp_sendto
 .text.simple_udp_register
                0x00006dec       0x96 build/sky/contiki-ng-sky.a(simple-udp.o)
                0x00006dec                simple_udp_register
 .text.tcpip_output
                0x00006e82       0x22 build/sky/contiki-ng-sky.a(tcpip.o)
                0x00006e82                tcpip_output
 .text.udp_new  0x00006ea4       0x1a build/sky/contiki-ng-sky.a(tcpip.o)
                0x00006ea4                udp_new
 .text.tcpip_input
                0x00006ebe       0x1e build/sky/contiki-ng-sky.a(tcpip.o)
                0x00006ebe                tcpip_input
 .text.tcpip_ipv6_output
                0x00006edc      0x114 build/sky/contiki-ng-sky.a(tcpip.o)
                0x00006edc                tcpip_ipv6_output
 .text.packet_input.part.3
                0x00006ff0       0x12 build/sky/contiki-ng-sky.a(tcpip.o)
 .text.process_thread_tcpip_process
                0x00007002       0xcc build/sky/contiki-ng-sky.a(tcpip.o)
 .text.tcpip_uipcall
                0x000070ce       0x2a build/sky/contiki-ng-sky.a(tcpip.o)
                0x000070ce                tcpip_uipcall
 .text.chksum   0x000070f8       0x32 build/sky/contiki-ng-sky.a(uip6.o)
 .text.upper_layer_chksum
                0x0000712a       0x58 build/sky/contiki-ng-sky.a(uip6.o)
 .text.ext_hdr_options_process
                0x00007182       0xa4 build/sky/contiki-ng-sky.a(uip6.o)
 .text.uip_check_mtu
                0x00007226       0x1e build/sky/contiki-ng-sky.a(uip6.o)
 .text.uip_update_ttl
                0x00007244       0x24 build/sky/contiki-ng-sky.a(uip6.o)
 .text.uip_icmp6chksum
                0x00007268        0xa build/sky/contiki-ng-sky.a(uip6.o)
                0x00007268                uip_icmp6chksum
 .text.uip_udpchksum
                0x00007272        0xa build/sky/contiki-ng-sky.a(uip6.o)
                0x00007272                uip_udpchksum
 .text.uip_init
                0x0000727c       0x3c build/sky/contiki-ng-sky.a(uip6.o)
                0x0000727c                uip_init
 .text.uip_remove_ext_hdr
                0x000072b8       0x5e build/sky/contiki-ng-sky.a(uip6.o)
                0x000072b8                uip_remove_ext_hdr
 .text.uip_udp_new
                0x00007316       0xac build/sky/contiki-ng-sky.a(uip6.o)
                0x00007316                uip_udp_new
 .text.uip_process
                0x000073c2      0x4be build/sky/contiki-ng-sky.a(uip6.o)
                0x000073c2                uip_process
 .text.uip_htonl
                0x00007880       0x2e build/sky/contiki-ng-sky.a(uip6.o)
                0x00007880                uip_htonl
 .text.uipbuf_add_ext_hdr
                0x000078ae       0x1c build/sky/contiki-ng-sky.a(uipbuf.o)
                0x000078ae                uipbuf_add_ext_hdr
 .text.uipbuf_set_len
                0x000078ca       0x12 build/sky/contiki-ng-sky.a(uipbuf.o)
                0x000078ca                uipbuf_set_len
 .text.uipbuf_set_len_field
                0x000078dc        0xe build/sky/contiki-ng-sky.a(uipbuf.o)
                0x000078dc                uipbuf_set_len_field
 .text.uipbuf_get_len_field
                0x000078ea        0xe build/sky/contiki-ng-sky.a(uipbuf.o)
                0x000078ea                uipbuf_get_len_field
 .text.uipbuf_get_next_header
                0x000078f8       0x62 build/sky/contiki-ng-sky.a(uipbuf.o)
                0x000078f8                uipbuf_get_next_header
 .text.uipbuf_get_last_header
                0x0000795a       0x3e build/sky/contiki-ng-sky.a(uipbuf.o)
                0x0000795a                uipbuf_get_last_header
 .text.uipbuf_search_header
                0x00007998       0x4e build/sky/contiki-ng-sky.a(uipbuf.o)
                0x00007998                uipbuf_search_header
 .text.uipbuf_get_attr
                0x000079e6       0x14 build/sky/contiki-ng-sky.a(uipbuf.o)
                0x000079e6                uipbuf_get_attr
 .text.uipbuf_clear_attr
                0x000079fa       0x12 build/sky/contiki-ng-sky.a(uipbuf.o)
                0x000079fa                uipbuf_clear_attr
 .text.uipbuf_clear
                0x00007a0c       0x12 build/sky/contiki-ng-sky.a(uipbuf.o)
                0x00007a0c                uipbuf_clear
 .text.uipbuf_init
                0x00007a1e       0x1a build/sky/contiki-ng-sky.a(uipbuf.o)
                0x00007a1e                uipbuf_init
 .text.uip_ds6_default_prefix
                0x00007a38        0x6 build/sky/contiki-ng-sky.a(uip-ds6.o)
                0x00007a38                uip_ds6_default_prefix
 .text.uip_ds6_list_loop
                0x00007a3e       0x92 build/sky/contiki-ng-sky.a(uip-ds6.o)
                0x00007a3e                uip_ds6_list_loop
 .text.uip_ds6_prefix_add
                0x00007ad0       0x80 build/sky/contiki-ng-sky.a(uip-ds6.o)
                0x00007ad0                uip_ds6_prefix_add
 .text.uip_ds6_is_addr_onlink
                0x00007b50       0x54 build/sky/contiki-ng-sky.a(uip-ds6.o)
                0x00007b50                uip_ds6_is_addr_onlink
 .text.uip_ds6_addr_lookup
                0x00007ba4       0x2a build/sky/contiki-ng-sky.a(uip-ds6.o)
                0x00007ba4                uip_ds6_addr_lookup
 .text.uip_ds6_get_link_local
                0x00007bce       0x3e build/sky/contiki-ng-sky.a(uip-ds6.o)
                0x00007bce                uip_ds6_get_link_local
 .text.uip_ds6_maddr_add
                0x00007c0c       0x4c build/sky/contiki-ng-sky.a(uip-ds6.o)
                0x00007c0c                uip_ds6_maddr_add
 .text.uip_ds6_addr_add
                0x00007c58       0xc4 build/sky/contiki-ng-sky.a(uip-ds6.o)
                0x00007c58                uip_ds6_addr_add
 .text.uip_ds6_maddr_rm
                0x00007d1c        0xa build/sky/contiki-ng-sky.a(uip-ds6.o)
                0x00007d1c                uip_ds6_maddr_rm
 .text.uip_ds6_maddr_lookup
                0x00007d26       0x2a build/sky/contiki-ng-sky.a(uip-ds6.o)
                0x00007d26                uip_ds6_maddr_lookup
 .text.uip_ds6_addr_rm
                0x00007d50       0x54 build/sky/contiki-ng-sky.a(uip-ds6.o)
                0x00007d50                uip_ds6_addr_rm
 .text.uip_ds6_periodic
                0x00007da4       0x46 build/sky/contiki-ng-sky.a(uip-ds6.o)
                0x00007da4                uip_ds6_periodic
 .text.uip_ds6_set_addr_iid
                0x00007dea       0x14 build/sky/contiki-ng-sky.a(uip-ds6.o)
                0x00007dea                uip_ds6_set_addr_iid
 .text.uip_ds6_set_lladdr_from_iid
                0x00007dfe       0x14 build/sky/contiki-ng-sky.a(uip-ds6.o)
                0x00007dfe                uip_ds6_set_lladdr_from_iid
 .text.get_match_length
                0x00007e12       0x44 build/sky/contiki-ng-sky.a(uip-ds6.o)
                0x00007e12                get_match_length
 .text.uip_ds6_select_src
                0x00007e56       0xaa build/sky/contiki-ng-sky.a(uip-ds6.o)
                0x00007e56                uip_ds6_select_src
 .text.uip_ds6_compute_reachable_time
                0x00007f00       0x3e build/sky/contiki-ng-sky.a(uip-ds6.o)
                0x00007f00                uip_ds6_compute_reachable_time
 .text.uip_ds6_init
                0x00007f3e      0x164 build/sky/contiki-ng-sky.a(uip-ds6.o)
                0x00007f3e                uip_ds6_init
 .text.uip_ds6_nbr_rm
                0x000080a2       0x1e build/sky/contiki-ng-sky.a(uip-ds6-nbr.o)
                0x000080a2                uip_ds6_nbr_rm
 .text.uip_ds6_neighbors_init
                0x000080c0       0x12 build/sky/contiki-ng-sky.a(uip-ds6-nbr.o)
                0x000080c0                uip_ds6_neighbors_init
 .text.uip_ds6_nbr_add
                0x000080d2       0x3e build/sky/contiki-ng-sky.a(uip-ds6-nbr.o)
                0x000080d2                uip_ds6_nbr_add
 .text.uip_ds6_nbr_get_ll
                0x00008110        0xc build/sky/contiki-ng-sky.a(uip-ds6-nbr.o)
                0x00008110                uip_ds6_nbr_get_ll
 .text.uip_ds6_nbr_head
                0x0000811c        0xa build/sky/contiki-ng-sky.a(uip-ds6-nbr.o)
                0x0000811c                uip_ds6_nbr_head
 .text.uip_ds6_nbr_next
                0x00008126        0xc build/sky/contiki-ng-sky.a(uip-ds6-nbr.o)
                0x00008126                uip_ds6_nbr_next
 .text.uip_ds6_nbr_lookup
                0x00008132       0x3a build/sky/contiki-ng-sky.a(uip-ds6-nbr.o)
                0x00008132                uip_ds6_nbr_lookup
 .text.uip_ds6_nbr_ll_lookup
                0x0000816c        0xc build/sky/contiki-ng-sky.a(uip-ds6-nbr.o)
                0x0000816c                uip_ds6_nbr_ll_lookup
 .text.uip_ds6_nbr_update_ll
                0x00008178       0x76 build/sky/contiki-ng-sky.a(uip-ds6-nbr.o)
                0x00008178                uip_ds6_nbr_update_ll
 .text.uip_ds6_nbr_ipaddr_from_lladdr
                0x000081ee        0x6 build/sky/contiki-ng-sky.a(uip-ds6-nbr.o)
                0x000081ee                uip_ds6_nbr_ipaddr_from_lladdr
 .text.uip_ds6_nbr_lladdr_from_ipaddr
                0x000081f4       0x12 build/sky/contiki-ng-sky.a(uip-ds6-nbr.o)
                0x000081f4                uip_ds6_nbr_lladdr_from_ipaddr
 .text.uip_ds6_link_callback
                0x00008206        0x2 build/sky/contiki-ng-sky.a(uip-ds6-nbr.o)
                0x00008206                uip_ds6_link_callback
 .text.uip_ds6_route_init
                0x00008208       0x12 build/sky/contiki-ng-sky.a(uip-ds6-route.o)
                0x00008208                uip_ds6_route_init
 .text.uip_ds6_route_nexthop
                0x0000821a        0x4 build/sky/contiki-ng-sky.a(uip-ds6-route.o)
                0x0000821a                uip_ds6_route_nexthop
 .text.uip_ds6_route_lookup
                0x0000821e        0x4 build/sky/contiki-ng-sky.a(uip-ds6-route.o)
                0x0000821e                uip_ds6_route_lookup
 .text.uip_ds6_route_rm
                0x00008222        0x2 build/sky/contiki-ng-sky.a(uip-ds6-route.o)
                0x00008222                uip_ds6_route_rm
 .text.uip_ds6_defrt_rm
                0x00008224       0x3c build/sky/contiki-ng-sky.a(uip-ds6-route.o)
                0x00008224                uip_ds6_defrt_rm
 .text.uip_ds6_defrt_lookup
                0x00008260       0x40 build/sky/contiki-ng-sky.a(uip-ds6-route.o)
                0x00008260                uip_ds6_defrt_lookup
 .text.uip_ds6_defrt_add
                0x000082a0       0x72 build/sky/contiki-ng-sky.a(uip-ds6-route.o)
                0x000082a0                uip_ds6_defrt_add
 .text.uip_ds6_defrt_choose
                0x00008312       0x3a build/sky/contiki-ng-sky.a(uip-ds6-route.o)
                0x00008312                uip_ds6_defrt_choose
 .text.uip_ds6_defrt_periodic
                0x0000834c       0x38 build/sky/contiki-ng-sky.a(uip-ds6-route.o)
                0x0000834c                uip_ds6_defrt_periodic
 .text.echo_reply_input
                0x00008384       0x68 build/sky/contiki-ng-sky.a(uip-icmp6.o)
 .text.echo_request_input
                0x000083ec       0x86 build/sky/contiki-ng-sky.a(uip-icmp6.o)
 .text.uip_icmp6_input
                0x00008472       0x48 build/sky/contiki-ng-sky.a(uip-icmp6.o)
                0x00008472                uip_icmp6_input
 .text.uip_icmp6_register_input_handler
                0x000084ba        0xc build/sky/contiki-ng-sky.a(uip-icmp6.o)
                0x000084ba                uip_icmp6_register_input_handler
 .text.uip_icmp6_error_output
                0x000084c6      0x146 build/sky/contiki-ng-sky.a(uip-icmp6.o)
                0x000084c6                uip_icmp6_error_output
 .text.uip_icmp6_send
                0x0000860c       0x94 build/sky/contiki-ng-sky.a(uip-icmp6.o)
                0x0000860c                uip_icmp6_send
 .text.uip_icmp6_init
                0x000086a0       0x12 build/sky/contiki-ng-sky.a(uip-icmp6.o)
                0x000086a0                uip_icmp6_init
 .text.uiplib_ipaddr_snprint
                0x000086b2      0x12c build/sky/contiki-ng-sky.a(uiplib.o)
                0x000086b2                uiplib_ipaddr_snprint
 .text.ns_input
                0x000087de      0x288 build/sky/contiki-ng-sky.a(uip-nd6.o)
 .text.uip_nd6_init
                0x00008a66        0xa build/sky/contiki-ng-sky.a(uip-nd6.o)
                0x00008a66                uip_nd6_init
 .text.uip_udp_packet_send
                0x00008a70       0x2a build/sky/contiki-ng-sky.a(uip-udp-packet.)
                0x00008a70                uip_udp_packet_send
 .text.uip_udp_packet_sendto
                0x00008a9a       0x66 build/sky/contiki-ng-sky.a(uip-udp-packet.)
                0x00008a9a                uip_udp_packet_sendto
 .text.rpl_has_joined
                0x00008b00       0x12 build/sky/contiki-ng-sky.a(rpl.o)
                0x00008b00                rpl_has_joined
 .text.rpl_is_reachable
                0x00008b12       0x12 build/sky/contiki-ng-sky.a(rpl.o)
                0x00008b12                rpl_is_reachable
 .text.neighbor_state_changed
                0x00008b24        0x2 build/sky/contiki-ng-sky.a(rpl.o)
 .text.drop_route
                0x00008b26        0x2 build/sky/contiki-ng-sky.a(rpl.o)
 .text.get_sr_node_ipaddr
                0x00008b28       0x34 build/sky/contiki-ng-sky.a(rpl.o)
 .text.init     0x00008b5c       0x46 build/sky/contiki-ng-sky.a(rpl.o)
 .text.set_ip_from_prefix
                0x00008ba2       0x38 build/sky/contiki-ng-sky.a(rpl.o)
 .text.rpl_link_callback
                0x00008bda       0x1e build/sky/contiki-ng-sky.a(rpl.o)
                0x00008bda                rpl_link_callback
 .text.rpl_lollipop_greater_than
                0x00008bf8       0x3c build/sky/contiki-ng-sky.a(rpl.o)
                0x00008bf8                rpl_lollipop_greater_than
 .text.rpl_get_global_address
                0x00008c34       0xbe build/sky/contiki-ng-sky.a(rpl.o)
                0x00008c34                rpl_get_global_address
 .text.rpl_reset_prefix
                0x00008cf2       0x24 build/sky/contiki-ng-sky.a(rpl.o)
                0x00008cf2                rpl_reset_prefix
 .text.rpl_set_prefix_from_addr
                0x00008d16       0x92 build/sky/contiki-ng-sky.a(rpl.o)
                0x00008d16                rpl_set_prefix_from_addr
 .text.rpl_get_leaf_only
                0x00008da8        0x6 build/sky/contiki-ng-sky.a(rpl.o)
                0x00008da8                rpl_get_leaf_only
 .text.init_dag
                0x00008dae       0x84 build/sky/contiki-ng-sky.a(rpl-dag.o)
 .text.init_dag_from_dio
                0x00008e32       0x96 build/sky/contiki-ng-sky.a(rpl-dag.o)
 .text.rpl_dag_get_root_ipaddr
                0x00008ec8       0x1e build/sky/contiki-ng-sky.a(rpl-dag.o)
                0x00008ec8                rpl_dag_get_root_ipaddr
 .text.rpl_dag_leave
                0x00008ee6       0x4a build/sky/contiki-ng-sky.a(rpl-dag.o)
                0x00008ee6                rpl_dag_leave
 .text.rpl_dag_poison_and_leave
                0x00008f30        0xc build/sky/contiki-ng-sky.a(rpl-dag.o)
                0x00008f30                rpl_dag_poison_and_leave
 .text.rpl_dag_periodic
                0x00008f3c       0x6a build/sky/contiki-ng-sky.a(rpl-dag.o)
                0x00008f3c                rpl_dag_periodic
 .text.rpl_is_addr_in_our_dag
                0x00008fa6       0x34 build/sky/contiki-ng-sky.a(rpl-dag.o)
                0x00008fa6                rpl_is_addr_in_our_dag
 .text.rpl_local_repair
                0x00008fda       0x2a build/sky/contiki-ng-sky.a(rpl-dag.o)
                0x00008fda                rpl_local_repair
 .text.rpl_global_repair
                0x00009004       0x2e build/sky/contiki-ng-sky.a(rpl-dag.o)
                0x00009004                rpl_global_repair
 .text.rpl_dag_ready_to_advertise
                0x00009032       0x22 build/sky/contiki-ng-sky.a(rpl-dag.o)
                0x00009032                rpl_dag_ready_to_advertise
 .text.rpl_dag_update_state
                0x00009054      0x148 build/sky/contiki-ng-sky.a(rpl-dag.o)
                0x00009054                rpl_dag_update_state
 .text.rpl_process_dio
                0x0000919c      0x1c8 build/sky/contiki-ng-sky.a(rpl-dag.o)
                0x0000919c                rpl_process_dio
 .text.rpl_process_dis
                0x00009364       0x2a build/sky/contiki-ng-sky.a(rpl-dag.o)
                0x00009364                rpl_process_dis
 .text.rpl_process_dao
                0x0000938e       0x6c build/sky/contiki-ng-sky.a(rpl-dag.o)
                0x0000938e                rpl_process_dao
 .text.rpl_process_dao_ack
                0x000093fa       0x54 build/sky/contiki-ng-sky.a(rpl-dag.o)
                0x000093fa                rpl_process_dao_ack
 .text.rpl_process_hbh
                0x0000944e       0x2e build/sky/contiki-ng-sky.a(rpl-dag.o)
                0x0000944e                rpl_process_hbh
 .text.rpl_dag_init_root
                0x0000947c       0xbe build/sky/contiki-ng-sky.a(rpl-dag.o)
                0x0000947c                rpl_dag_init_root
 .text.rpl_dag_init
                0x0000953a       0x10 build/sky/contiki-ng-sky.a(rpl-dag.o)
                0x0000953a                rpl_dag_init
 .text.rpl_dag_root_set_prefix
                0x0000954a       0x62 build/sky/contiki-ng-sky.a(rpl-dag-root.o)
                0x0000954a                rpl_dag_root_set_prefix
 .text.rpl_dag_root_start
                0x000095ac       0x8e build/sky/contiki-ng-sky.a(rpl-dag-root.o)
                0x000095ac                rpl_dag_root_start
 .text.rpl_dag_root_is_root
                0x0000963a       0x14 build/sky/contiki-ng-sky.a(rpl-dag-root.o)
                0x0000963a                rpl_dag_root_is_root
 .text.update_hbh_header
                0x0000964e       0x4a build/sky/contiki-ng-sky.a(rpl-ext-header.)
 .text.rpl_ext_header_srh_get_next_hop
                0x00009698       0x84 build/sky/contiki-ng-sky.a(rpl-ext-header.)
                0x00009698                rpl_ext_header_srh_get_next_hop
 .text.rpl_ext_header_srh_update
                0x0000971c      0x106 build/sky/contiki-ng-sky.a(rpl-ext-header.)
                0x0000971c                rpl_ext_header_srh_update
 .text.rpl_ext_header_hbh_update
                0x00009822       0x9e build/sky/contiki-ng-sky.a(rpl-ext-header.)
                0x00009822                rpl_ext_header_hbh_update
 .text.rpl_ext_header_remove
                0x000098c0       0xcc build/sky/contiki-ng-sky.a(rpl-ext-header.)
                0x000098c0                rpl_ext_header_remove
 .text.rpl_ext_header_update
                0x0000998c      0x2aa build/sky/contiki-ng-sky.a(rpl-ext-header.)
                0x0000998c                rpl_ext_header_update
 .text.get32    0x00009c36       0x46 build/sky/contiki-ng-sky.a(rpl-icmp6.o)
 .text.set32    0x00009c7c       0x2a build/sky/contiki-ng-sky.a(rpl-icmp6.o)
 .text.get16    0x00009ca6        0xe build/sky/contiki-ng-sky.a(rpl-icmp6.o)
 .text.set16    0x00009cb4       0x10 build/sky/contiki-ng-sky.a(rpl-icmp6.o)
 .text.dao_ack_input
                0x00009cc4       0x2a build/sky/contiki-ng-sky.a(rpl-icmp6.o)
 .text.dao_input
                0x00009cee      0x13e build/sky/contiki-ng-sky.a(rpl-icmp6.o)
 .text.dio_input
                0x00009e2c      0x29c build/sky/contiki-ng-sky.a(rpl-icmp6.o)
 .text.dis_input
                0x0000a0c8       0x1e build/sky/contiki-ng-sky.a(rpl-icmp6.o)
 .text.rpl_icmp6_update_nbr_table
                0x0000a0e6       0x36 build/sky/contiki-ng-sky.a(rpl-icmp6.o)
                0x0000a0e6                rpl_icmp6_update_nbr_table
 .text.rpl_icmp6_dis_output
                0x0000a11c       0x34 build/sky/contiki-ng-sky.a(rpl-icmp6.o)
                0x0000a11c                rpl_icmp6_dis_output
 .text.rpl_icmp6_dio_output
                0x0000a150      0x23a build/sky/contiki-ng-sky.a(rpl-icmp6.o)
                0x0000a150                rpl_icmp6_dio_output
 .text.rpl_icmp6_dao_output
                0x0000a38a       0xe6 build/sky/contiki-ng-sky.a(rpl-icmp6.o)
                0x0000a38a                rpl_icmp6_dao_output
 .text.rpl_icmp6_dao_ack_output
                0x0000a470       0x44 build/sky/contiki-ng-sky.a(rpl-icmp6.o)
                0x0000a470                rpl_icmp6_dao_ack_output
 .text.rpl_icmp6_init
                0x0000a4b4       0x22 build/sky/contiki-ng-sky.a(rpl-icmp6.o)
                0x0000a4b4                rpl_icmp6_init
 .text.flood_input
                0x0000a4d6       0xde build/sky/contiki-ng-sky.a(rpl-icmp6-malic)
                0x0000a4d6                flood_input
 .text.rpl_icmp6_flood_init
                0x0000a5b4        0xa build/sky/contiki-ng-sky.a(rpl-icmp6-malic)
                0x0000a5b4                rpl_icmp6_flood_init
 .text.reset    0x0000a5be        0x2 build/sky/contiki-ng-sky.a(rpl-mrhof.o)
 .text.update_metric_container
                0x0000a5c0        0x6 build/sky/contiki-ng-sky.a(rpl-mrhof.o)
 .text.nbr_link_metric
                0x0000a5c6       0x12 build/sky/contiki-ng-sky.a(rpl-mrhof.o)
 .text.nbr_has_usable_link
                0x0000a5d8       0x14 build/sky/contiki-ng-sky.a(rpl-mrhof.o)
 .text.nbr_path_cost
                0x0000a5ec       0x38 build/sky/contiki-ng-sky.a(rpl-mrhof.o)
 .text.within_hysteresis
                0x0000a624       0x54 build/sky/contiki-ng-sky.a(rpl-mrhof.o)
 .text.nbr_is_acceptable_parent
                0x0000a678       0x2c build/sky/contiki-ng-sky.a(rpl-mrhof.o)
 .text.rank_via_nbr
                0x0000a6a4       0x48 build/sky/contiki-ng-sky.a(rpl-mrhof.o)
 .text.best_parent
                0x0000a6ec       0x7c build/sky/contiki-ng-sky.a(rpl-mrhof.o)
 .text.remove_neighbor
                0x0000a768       0x24 build/sky/contiki-ng-sky.a(rpl-neighbor.o)
 .text.rpl_neighbor_get_from_lladdr
                0x0000a78c        0xc build/sky/contiki-ng-sky.a(rpl-neighbor.o)
                0x0000a78c                rpl_neighbor_get_from_lladdr
 .text.rpl_neighbor_rank_via_nbr
                0x0000a798       0x18 build/sky/contiki-ng-sky.a(rpl-neighbor.o)
                0x0000a798                rpl_neighbor_rank_via_nbr
 .text.rpl_neighbor_get_lladdr
                0x0000a7b0        0xc build/sky/contiki-ng-sky.a(rpl-neighbor.o)
                0x0000a7b0                rpl_neighbor_get_lladdr
 .text.rpl_neighbor_get_ipaddr
                0x0000a7bc        0xa build/sky/contiki-ng-sky.a(rpl-neighbor.o)
                0x0000a7bc                rpl_neighbor_get_ipaddr
 .text.rpl_neighbor_get_link_stats
                0x0000a7c6        0xa build/sky/contiki-ng-sky.a(rpl-neighbor.o)
                0x0000a7c6                rpl_neighbor_get_link_stats
 .text.rpl_neighbor_is_fresh
                0x0000a7d0        0xa build/sky/contiki-ng-sky.a(rpl-neighbor.o)
                0x0000a7d0                rpl_neighbor_is_fresh
 .text.best_parent
                0x0000a7da       0xb2 build/sky/contiki-ng-sky.a(rpl-neighbor.o)
 .text.rpl_neighbor_is_parent
                0x0000a88c       0x18 build/sky/contiki-ng-sky.a(rpl-neighbor.o)
                0x0000a88c                rpl_neighbor_is_parent
 .text.rpl_neighbor_set_preferred_parent
                0x0000a8a4       0x44 build/sky/contiki-ng-sky.a(rpl-neighbor.o)
                0x0000a8a4                rpl_neighbor_set_preferred_parent
 .text.rpl_neighbor_remove_all
                0x0000a8e8       0x2a build/sky/contiki-ng-sky.a(rpl-neighbor.o)
                0x0000a8e8                rpl_neighbor_remove_all
 .text.rpl_neighbor_get_from_ipaddr
                0x0000a912       0x14 build/sky/contiki-ng-sky.a(rpl-neighbor.o)
                0x0000a912                rpl_neighbor_get_from_ipaddr
 .text.rpl_neighbor_select_best
                0x0000a926       0x54 build/sky/contiki-ng-sky.a(rpl-neighbor.o)
                0x0000a926                rpl_neighbor_select_best
 .text.rpl_neighbor_init
                0x0000a97a        0xe build/sky/contiki-ng-sky.a(rpl-neighbor.o)
                0x0000a97a                rpl_neighbor_init
 .text.handle_state_update
                0x0000a988       0x20 build/sky/contiki-ng-sky.a(rpl-timers.o)
 .text.handle_leaving_timer
                0x0000a9a8        0xc build/sky/contiki-ng-sky.a(rpl-timers.o)
 .text.schedule_dao_retransmission
                0x0000a9b4       0x34 build/sky/contiki-ng-sky.a(rpl-timers.o)
 .text.new_dio_interval
                0x0000a9e8       0x8a build/sky/contiki-ng-sky.a(rpl-timers.o)
 .text.handle_unicast_dio_timer
                0x0000aa72       0x12 build/sky/contiki-ng-sky.a(rpl-timers.o)
 .text.send_new_dao
                0x0000aa84       0x28 build/sky/contiki-ng-sky.a(rpl-timers.o)
 .text.resend_dao
                0x0000aaac       0x24 build/sky/contiki-ng-sky.a(rpl-timers.o)
 .text.handle_dao_ack_timer
                0x0000aad0       0x12 build/sky/contiki-ng-sky.a(rpl-timers.o)
 .text.handle_dio_timer
                0x0000aae2       0x6e build/sky/contiki-ng-sky.a(rpl-timers.o)
 .text.rpl_timers_schedule_periodic_dis
                0x0000ab50       0x40 build/sky/contiki-ng-sky.a(rpl-timers.o)
                0x0000ab50                rpl_timers_schedule_periodic_dis
 .text.handle_periodic_timer
                0x0000ab90       0x3a build/sky/contiki-ng-sky.a(rpl-timers.o)
 .text.handle_dis_timer
                0x0000abca       0x26 build/sky/contiki-ng-sky.a(rpl-timers.o)
 .text.rpl_timers_dio_reset
                0x0000abf0       0x20 build/sky/contiki-ng-sky.a(rpl-timers.o)
                0x0000abf0                rpl_timers_dio_reset
 .text.rpl_timers_schedule_unicast_dio
                0x0000ac10       0x20 build/sky/contiki-ng-sky.a(rpl-timers.o)
                0x0000ac10                rpl_timers_schedule_unicast_dio
 .text.rpl_timers_schedule_dao
                0x0000ac30       0x3c build/sky/contiki-ng-sky.a(rpl-timers.o)
                0x0000ac30                rpl_timers_schedule_dao
 .text.rpl_timers_schedule_dao_ack
                0x0000ac6c       0x34 build/sky/contiki-ng-sky.a(rpl-timers.o)
                0x0000ac6c                rpl_timers_schedule_dao_ack
 .text.rpl_timers_notify_dao_ack
                0x0000aca0       0x82 build/sky/contiki-ng-sky.a(rpl-timers.o)
                0x0000aca0                rpl_timers_notify_dao_ack
 .text.get_probing_delay
                0x0000ad22       0x1c build/sky/contiki-ng-sky.a(rpl-timers.o)
                0x0000ad22                get_probing_delay
 .text.get_probing_target
                0x0000ad3e       0xee build/sky/contiki-ng-sky.a(rpl-timers.o)
                0x0000ad3e                get_probing_target
 .text.rpl_schedule_probing
                0x0000ae2c       0x20 build/sky/contiki-ng-sky.a(rpl-timers.o)
                0x0000ae2c                rpl_schedule_probing
 .text.handle_probing_timer
                0x0000ae4c       0x2a build/sky/contiki-ng-sky.a(rpl-timers.o)
 .text.rpl_schedule_probing_now
                0x0000ae76       0x24 build/sky/contiki-ng-sky.a(rpl-timers.o)
                0x0000ae76                rpl_schedule_probing_now
 .text.rpl_timers_unschedule_leaving
                0x0000ae9a       0x1c build/sky/contiki-ng-sky.a(rpl-timers.o)
                0x0000ae9a                rpl_timers_unschedule_leaving
 .text.rpl_timers_schedule_leaving
                0x0000aeb6       0x2a build/sky/contiki-ng-sky.a(rpl-timers.o)
                0x0000aeb6                rpl_timers_schedule_leaving
 .text.rpl_timers_init
                0x0000aee0       0x1c build/sky/contiki-ng-sky.a(rpl-timers.o)
                0x0000aee0                rpl_timers_init
 .text.rpl_timers_stop_dag_timers
                0x0000aefc       0x4c build/sky/contiki-ng-sky.a(rpl-timers.o)
                0x0000aefc                rpl_timers_stop_dag_timers
 .text.rpl_timers_unschedule_state_update
                0x0000af48       0x10 build/sky/contiki-ng-sky.a(rpl-timers.o)
                0x0000af48                rpl_timers_unschedule_state_update
 .text.rpl_timers_schedule_state_update
                0x0000af58       0x1c build/sky/contiki-ng-sky.a(rpl-timers.o)
                0x0000af58                rpl_timers_schedule_state_update
 .text.init_platform
                0x0000af74        0xc build/sky/contiki-ng-sky.a(contiki-sky-pla)
                0x0000af74                init_platform
 .text.status   0x0000af80       0x18 build/sky/contiki-ng-sky.a(button-sensor.o)
 .text.value    0x0000af98       0x20 build/sky/contiki-ng-sky.a(button-sensor.o)
 .text.configure
                0x0000afb8       0x4c build/sky/contiki-ng-sky.a(button-sensor.o)
 .text.irq_p2   0x0000b004       0x46 build/sky/contiki-ng-sky.a(button-sensor.o)
                0x0000b004                irq_p2
                0x0000b004                __isr_1
 .text.owreadb  0x0000b04a       0x50 build/sky/contiki-ng-sky.a(ds2411.o)
 .text.ds2411_init
                0x0000b09a      0x120 build/sky/contiki-ng-sky.a(ds2411.o)
                0x0000b09a                ds2411_init
 .text.xmem_init
                0x0000b1ba       0x3c build/sky/contiki-ng-sky.a(xmem.o)
                0x0000b1ba                xmem_init
 .text.process_thread_sensors_process
                0x0000b1f6       0xc2 build/sky/contiki-ng-sky.a(sensors.o)
 .text.sensors_changed
                0x0000b2b8       0x2a build/sky/contiki-ng-sky.a(sensors.o)
                0x0000b2b8                sensors_changed
 .text.get_object
                0x0000b2e2        0x4 build/sky/contiki-ng-sky.a(cc2420.o)
 .text.set_object
                0x0000b2e6        0x4 build/sky/contiki-ng-sky.a(cc2420.o)
 .text.strobe   0x0000b2ea       0x1c build/sky/contiki-ng-sky.a(cc2420.o)
 .text.getreg   0x0000b306       0x4c build/sky/contiki-ng-sky.a(cc2420.o)
 .text.setreg   0x0000b352       0x4c build/sky/contiki-ng-sky.a(cc2420.o)
 .text.write_ram
                0x0000b39e       0x7c build/sky/contiki-ng-sky.a(cc2420.o)
 .text.write_fifo_buf
                0x0000b41a       0x3c build/sky/contiki-ng-sky.a(cc2420.o)
 .text.get_status
                0x0000b456       0x20 build/sky/contiki-ng-sky.a(cc2420.o)
 .text.on       0x0000b476       0x1a build/sky/contiki-ng-sky.a(cc2420.o)
 .text.cc2420_receiving_packet
                0x0000b490        0xc build/sky/contiki-ng-sky.a(cc2420.o)
 .text.pending_packet
                0x0000b49c        0x8 build/sky/contiki-ng-sky.a(cc2420.o)
 .text.wait_for_transmission
                0x0000b4a4       0x22 build/sky/contiki-ng-sky.a(cc2420.o)
 .text.wait_for_status
                0x0000b4c6       0x28 build/sky/contiki-ng-sky.a(cc2420.o)
 .text.getrxdata
                0x0000b4ee       0x50 build/sky/contiki-ng-sky.a(cc2420.o)
 .text.flushrx  0x0000b53e       0x1a build/sky/contiki-ng-sky.a(cc2420.o)
 .text.off      0x0000b558       0x28 build/sky/contiki-ng-sky.a(cc2420.o)
 .text.RELEASE_LOCK
                0x0000b580       0x28 build/sky/contiki-ng-sky.a(cc2420.o)
 .text.set_key  0x0000b5a8       0x18 build/sky/contiki-ng-sky.a(cc2420.o)
 .text.set_frame_filtering
                0x0000b5c0       0x30 build/sky/contiki-ng-sky.a(cc2420.o)
 .text.set_auto_ack
                0x0000b5f0       0x30 build/sky/contiki-ng-sky.a(cc2420.o)
 .text.set_poll_mode
                0x0000b620       0x2c build/sky/contiki-ng-sky.a(cc2420.o)
 .text.cc2420_prepare
                0x0000b64c       0x3c build/sky/contiki-ng-sky.a(cc2420.o)
 .text.cc2420_on
                0x0000b688       0x22 build/sky/contiki-ng-sky.a(cc2420.o)
                0x0000b688                cc2420_on
 .text.cc2420_transmit
                0x0000b6aa       0x5a build/sky/contiki-ng-sky.a(cc2420.o)
 .text.cc2420_send
                0x0000b704       0x12 build/sky/contiki-ng-sky.a(cc2420.o)
 .text.cc2420_off
                0x0000b716       0x30 build/sky/contiki-ng-sky.a(cc2420.o)
                0x0000b716                cc2420_off
 .text.cc2420_cca
                0x0000b746       0x68 build/sky/contiki-ng-sky.a(cc2420.o)
 .text.cc2420_read
                0x0000b7ae       0xbe build/sky/contiki-ng-sky.a(cc2420.o)
 .text.process_thread_cc2420_process
                0x0000b86c       0x62 build/sky/contiki-ng-sky.a(cc2420.o)
 .text.encrypt  0x0000b8ce       0x88 build/sky/contiki-ng-sky.a(cc2420.o)
 .text.cc2420_set_channel
                0x0000b956       0x3c build/sky/contiki-ng-sky.a(cc2420.o)
                0x0000b956                cc2420_set_channel
 .text.cc2420_set_pan_addr
                0x0000b992       0x4c build/sky/contiki-ng-sky.a(cc2420.o)
                0x0000b992                cc2420_set_pan_addr
 .text.cc2420_interrupt
                0x0000b9de       0x16 build/sky/contiki-ng-sky.a(cc2420.o)
                0x0000b9de                cc2420_interrupt
 .text.cc2420_set_txpower
                0x0000b9f4       0x2c build/sky/contiki-ng-sky.a(cc2420.o)
                0x0000b9f4                cc2420_set_txpower
 .text.cc2420_get_txpower
                0x0000ba20       0x1e build/sky/contiki-ng-sky.a(cc2420.o)
                0x0000ba20                cc2420_get_txpower
 .text.cc2420_rssi
                0x0000ba3e       0x4c build/sky/contiki-ng-sky.a(cc2420.o)
                0x0000ba3e                cc2420_rssi
 .text.get_value
                0x0000ba8a      0x116 build/sky/contiki-ng-sky.a(cc2420.o)
 .text.cc2420_set_cca_threshold
                0x0000bba0       0x16 build/sky/contiki-ng-sky.a(cc2420.o)
                0x0000bba0                cc2420_set_cca_threshold
 .text.set_value
                0x0000bbb6      0x150 build/sky/contiki-ng-sky.a(cc2420.o)
 .text.cc2420_init
                0x0000bd06       0xea build/sky/contiki-ng-sky.a(cc2420.o)
                0x0000bd06                cc2420_init
 .text.cc2420_port1_interrupt
                0x0000bdf0       0x20 build/sky/contiki-ng-sky.a(cc2420-arch.o)
                0x0000bdf0                __isr_4
                0x0000bdf0                cc2420_port1_interrupt
 .text.cc2420_arch_init
                0x0000be10       0x1a build/sky/contiki-ng-sky.a(cc2420-arch.o)
                0x0000be10                cc2420_arch_init
 .text.uart1_active
                0x0000be2a       0x18 build/sky/contiki-ng-sky.a(uart1.o)
                0x0000be2a                uart1_active
 .text.uart1_writeb
                0x0000be42       0x18 build/sky/contiki-ng-sky.a(uart1.o)
                0x0000be42                uart1_writeb
 .text.uart1_init
                0x0000be5a       0xf4 build/sky/contiki-ng-sky.a(uart1.o)
                0x0000be5a                uart1_init
 .text.timera0  0x0000bf4e       0x2e build/sky/contiki-ng-sky.a(rtimer-arch.o)
                0x0000bf4e                __isr_6
                0x0000bf4e                timera0
 .text.rtimer_arch_init
                0x0000bf7c        0xe build/sky/contiki-ng-sky.a(rtimer-arch.o)
                0x0000bf7c                rtimer_arch_init
 .text.rtimer_arch_now
                0x0000bf8a        0xe build/sky/contiki-ng-sky.a(rtimer-arch.o)
                0x0000bf8a                rtimer_arch_now
 .text.rtimer_arch_schedule
                0x0000bf98        0x6 build/sky/contiki-ng-sky.a(rtimer-arch.o)
                0x0000bf98                rtimer_arch_schedule
 .text.stimer_set
                0x0000bf9e       0x1c build/sky/contiki-ng-sky.a(stimer.o)
                0x0000bf9e                stimer_set
 .text.stimer_expired
                0x0000bfba       0x30 build/sky/contiki-ng-sky.a(stimer.o)
                0x0000bfba                stimer_expired
 .text.memb_init
                0x0000bfea       0x36 build/sky/contiki-ng-sky.a(memb.o)
                0x0000bfea                memb_init
 .text.memb_alloc
                0x0000c020       0x3e build/sky/contiki-ng-sky.a(memb.o)
                0x0000c020                memb_alloc
 .text.memb_free
                0x0000c05e       0x3a build/sky/contiki-ng-sky.a(memb.o)
                0x0000c05e                memb_free
 .text.memb_inmemb
                0x0000c098       0x2a build/sky/contiki-ng-sky.a(memb.o)
                0x0000c098                memb_inmemb
 .text.memb_numfree
                0x0000c0c2       0x26 build/sky/contiki-ng-sky.a(memb.o)
                0x0000c0c2                memb_numfree
 .text.periodic
                0x0000c0e8       0x28 build/sky/contiki-ng-sky.a(link-stats.o)
 .text.link_stats_from_lladdr
                0x0000c110        0xc build/sky/contiki-ng-sky.a(link-stats.o)
                0x0000c110                link_stats_from_lladdr
 .text.link_stats_is_fresh
                0x0000c11c       0x30 build/sky/contiki-ng-sky.a(link-stats.o)
                0x0000c11c                link_stats_is_fresh
 .text.guess_etx_from_rssi
                0x0000c14c       0x42 build/sky/contiki-ng-sky.a(link-stats.o)
                0x0000c14c                guess_etx_from_rssi
 .text.link_stats_packet_sent
                0x0000c18e       0xda build/sky/contiki-ng-sky.a(link-stats.o)
                0x0000c18e                link_stats_packet_sent
 .text.link_stats_input_callback
                0x0000c268       0xb4 build/sky/contiki-ng-sky.a(link-stats.o)
                0x0000c268                link_stats_input_callback
 .text.link_stats_reset
                0x0000c31c       0x2a build/sky/contiki-ng-sky.a(link-stats.o)
                0x0000c31c                link_stats_reset
 .text.link_stats_init
                0x0000c346       0x22 build/sky/contiki-ng-sky.a(link-stats.o)
                0x0000c346                link_stats_init
 .text.item_from_index
                0x0000c368       0x2a build/sky/contiki-ng-sky.a(nbr-table.o)
 .text.index_from_key
                0x0000c392       0x26 build/sky/contiki-ng-sky.a(nbr-table.o)
 .text.index_from_item
                0x0000c3b8       0x1e build/sky/contiki-ng-sky.a(nbr-table.o)
 .text.nbr_set_bit
                0x0000c3d6       0x58 build/sky/contiki-ng-sky.a(nbr-table.o)
 .text.index_from_lladdr
                0x0000c42e       0x42 build/sky/contiki-ng-sky.a(nbr-table.o)
 .text.nbr_get_bit.constprop.0
                0x0000c470       0x2e build/sky/contiki-ng-sky.a(nbr-table.o)
 .text.nbr_table_is_registered
                0x0000c49e       0x22 build/sky/contiki-ng-sky.a(nbr-table.o)
                0x0000c49e                nbr_table_is_registered
 .text.nbr_table_register
                0x0000c4c0       0x40 build/sky/contiki-ng-sky.a(nbr-table.o)
                0x0000c4c0                nbr_table_register
 .text.nbr_table_next
                0x0000c500       0x54 build/sky/contiki-ng-sky.a(nbr-table.o)
                0x0000c500                nbr_table_next
 .text.nbr_table_head
                0x0000c554       0x3a build/sky/contiki-ng-sky.a(nbr-table.o)
                0x0000c554                nbr_table_head
 .text.nbr_table_add_lladdr
                0x0000c58e      0x168 build/sky/contiki-ng-sky.a(nbr-table.o)
                0x0000c58e                nbr_table_add_lladdr
 .text.nbr_table_get_from_lladdr
                0x0000c6f6       0x2c build/sky/contiki-ng-sky.a(nbr-table.o)
                0x0000c6f6                nbr_table_get_from_lladdr
 .text.nbr_table_remove
                0x0000c722       0x32 build/sky/contiki-ng-sky.a(nbr-table.o)
                0x0000c722                nbr_table_remove
 .text.nbr_table_lock
                0x0000c754       0x10 build/sky/contiki-ng-sky.a(nbr-table.o)
                0x0000c754                nbr_table_lock
 .text.nbr_table_unlock
                0x0000c764       0x10 build/sky/contiki-ng-sky.a(nbr-table.o)
                0x0000c764                nbr_table_unlock
 .text.nbr_table_get_lladdr
                0x0000c774       0x22 build/sky/contiki-ng-sky.a(nbr-table.o)
                0x0000c774                nbr_table_get_lladdr
 .text.packetbuf_hdrreduce
                0x0000c796       0x1a build/sky/contiki-ng-sky.a(packetbuf.o)
                0x0000c796                packetbuf_hdrreduce
 .text.packetbuf_set_datalen
                0x0000c7b0        0x6 build/sky/contiki-ng-sky.a(packetbuf.o)
                0x0000c7b0                packetbuf_set_datalen
 .text.packetbuf_hdrptr
                0x0000c7b6        0x6 build/sky/contiki-ng-sky.a(packetbuf.o)
                0x0000c7b6                packetbuf_hdrptr
 .text.packetbuf_datalen
                0x0000c7bc        0x6 build/sky/contiki-ng-sky.a(packetbuf.o)
                0x0000c7bc                packetbuf_datalen
 .text.packetbuf_hdrlen
                0x0000c7c2        0xa build/sky/contiki-ng-sky.a(packetbuf.o)
                0x0000c7c2                packetbuf_hdrlen
 .text.packetbuf_dataptr
                0x0000c7cc        0xc build/sky/contiki-ng-sky.a(packetbuf.o)
                0x0000c7cc                packetbuf_dataptr
 .text.packetbuf_copyto
                0x0000c7d8       0x46 build/sky/contiki-ng-sky.a(packetbuf.o)
                0x0000c7d8                packetbuf_copyto
 .text.packetbuf_totlen
                0x0000c81e        0xc build/sky/contiki-ng-sky.a(packetbuf.o)
                0x0000c81e                packetbuf_totlen
 .text.packetbuf_hdralloc
                0x0000c82a       0x3c build/sky/contiki-ng-sky.a(packetbuf.o)
                0x0000c82a                packetbuf_hdralloc
 .text.packetbuf_attr_clear
                0x0000c866       0x28 build/sky/contiki-ng-sky.a(packetbuf.o)
                0x0000c866                packetbuf_attr_clear
 .text.packetbuf_clear
                0x0000c88e       0x12 build/sky/contiki-ng-sky.a(packetbuf.o)
                0x0000c88e                packetbuf_clear
 .text.packetbuf_copyfrom
                0x0000c8a0       0x2e build/sky/contiki-ng-sky.a(packetbuf.o)
                0x0000c8a0                packetbuf_copyfrom
 .text.packetbuf_attr_copyto
                0x0000c8ce       0x22 build/sky/contiki-ng-sky.a(packetbuf.o)
                0x0000c8ce                packetbuf_attr_copyto
 .text.packetbuf_attr_copyfrom
                0x0000c8f0       0x24 build/sky/contiki-ng-sky.a(packetbuf.o)
                0x0000c8f0                packetbuf_attr_copyfrom
 .text.packetbuf_set_attr
                0x0000c914        0xc build/sky/contiki-ng-sky.a(packetbuf.o)
                0x0000c914                packetbuf_set_attr
 .text.packetbuf_attr
                0x0000c920        0xa build/sky/contiki-ng-sky.a(packetbuf.o)
                0x0000c920                packetbuf_attr
 .text.packetbuf_set_addr
                0x0000c92a       0x18 build/sky/contiki-ng-sky.a(packetbuf.o)
                0x0000c92a                packetbuf_set_addr
 .text.packetbuf_addr
                0x0000c942       0x12 build/sky/contiki-ng-sky.a(packetbuf.o)
                0x0000c942                packetbuf_addr
 .text.packetbuf_holds_broadcast
                0x0000c954        0xe build/sky/contiki-ng-sky.a(packetbuf.o)
                0x0000c954                packetbuf_holds_broadcast
 .text.mac_call_sent_callback
                0x0000c962       0x14 build/sky/contiki-ng-sky.a(mac.o)
                0x0000c962                mac_call_sent_callback
 .text.mac_sequence_is_duplicate
                0x0000c976       0x84 build/sky/contiki-ng-sky.a(mac-sequence.o)
                0x0000c976                mac_sequence_is_duplicate
 .text.mac_sequence_register_seqno
                0x0000c9fa       0x90 build/sky/contiki-ng-sky.a(mac-sequence.o)
                0x0000c9fa                mac_sequence_register_seqno
 .text.parse    0x0000ca8a       0xa0 build/sky/contiki-ng-sky.a(framer-802154.o)
 .text.framer_802154_setup_params
                0x0000cb2a       0xb8 build/sky/contiki-ng-sky.a(framer-802154.o)
                0x0000cb2a                framer_802154_setup_params
 .text.create_frame
                0x0000cbe2       0xde build/sky/contiki-ng-sky.a(framer-802154.o)
 .text.create   0x0000ccc0        0x8 build/sky/contiki-ng-sky.a(framer-802154.o)
 .text.hdr_length
                0x0000ccc8        0x8 build/sky/contiki-ng-sky.a(framer-802154.o)
 .text.node_matches_address.part.0
                0x0000ccd0       0x2e build/sky/contiki-ng-sky.a(uip-sr.o)
 .text.uip_sr_get_node
                0x0000ccfe       0x44 build/sky/contiki-ng-sky.a(uip-sr.o)
                0x0000ccfe                uip_sr_get_node
 .text.uip_sr_is_addr_reachable
                0x0000cd42       0x4e build/sky/contiki-ng-sky.a(uip-sr.o)
                0x0000cd42                uip_sr_is_addr_reachable
 .text.uip_sr_expire_parent
                0x0000cd90       0x42 build/sky/contiki-ng-sky.a(uip-sr.o)
                0x0000cd90                uip_sr_expire_parent
 .text.uip_sr_update_node
                0x0000cdd2       0xbc build/sky/contiki-ng-sky.a(uip-sr.o)
                0x0000cdd2                uip_sr_update_node
 .text.uip_sr_init
                0x0000ce8e       0x16 build/sky/contiki-ng-sky.a(uip-sr.o)
                0x0000ce8e                uip_sr_init
 .text.uip_sr_periodic
                0x0000cea4       0x9a build/sky/contiki-ng-sky.a(uip-sr.o)
                0x0000cea4                uip_sr_periodic
 .text.uip_sr_free_all
                0x0000cf3e       0x3c build/sky/contiki-ng-sky.a(uip-sr.o)
                0x0000cf3e                uip_sr_free_all
 .text.update_state
                0x0000cf7a       0x78 build/sky/contiki-ng-sky.a(rpl-nbr-policy.)
 .text.rpl_nbr_policy_find_removable
                0x0000cff2       0x50 build/sky/contiki-ng-sky.a(rpl-nbr-policy.)
                0x0000cff2                rpl_nbr_policy_find_removable
 .text.spi_init
                0x0000d042       0x30 build/sky/contiki-ng-sky.a(spi-legacy.o)
                0x0000d042                spi_init
 .text.frame802154_get_pan_id
                0x0000d072        0x6 build/sky/contiki-ng-sky.a(frame802154.o)
                0x0000d072                frame802154_get_pan_id
 .text.frame802154_has_panid
                0x0000d078       0xe0 build/sky/contiki-ng-sky.a(frame802154.o)
                0x0000d078                frame802154_has_panid
 .text.field_len
                0x0000d158       0xac build/sky/contiki-ng-sky.a(frame802154.o)
 .text.frame802154_is_broadcast_addr
                0x0000d204       0x28 build/sky/contiki-ng-sky.a(frame802154.o)
                0x0000d204                frame802154_is_broadcast_addr
 .text.frame802154_hdrlen
                0x0000d22c       0x32 build/sky/contiki-ng-sky.a(frame802154.o)
                0x0000d22c                frame802154_hdrlen
 .text.frame802154_create_fcf
                0x0000d25e       0x96 build/sky/contiki-ng-sky.a(frame802154.o)
                0x0000d25e                frame802154_create_fcf
 .text.frame802154_create
                0x0000d2f4       0xe4 build/sky/contiki-ng-sky.a(frame802154.o)
                0x0000d2f4                frame802154_create
 .text.frame802154_parse_fcf
                0x0000d3d8       0xbc build/sky/contiki-ng-sky.a(frame802154.o)
                0x0000d3d8                frame802154_parse_fcf
 .text.frame802154_parse
                0x0000d494      0x168 build/sky/contiki-ng-sky.a(frame802154.o)
                0x0000d494                frame802154_parse
 .text.libgcc   0x0000d5fc       0x2c /usr/local/msp430/bin/../lib/gcc/msp430/4.7.0/mmpy-16/libgcc.a(_mulsi3.o)
                0x0000d5fc                __mulsi3
 .text.libgcc   0x0000d628       0x22 /usr/local/msp430/bin/../lib/gcc/msp430/4.7.0/mmpy-16/libgcc.a(_udivmod16.o)
                0x0000d628                __udivhi3
                0x0000d628                __ext_udivmod16
                0x0000d642                __umodhi3
 .text.libgcc   0x0000d64a       0x3a /usr/local/msp430/bin/../lib/gcc/msp430/4.7.0/mmpy-16/libgcc.a(_divmod16.o)
                0x0000d64a                __ext_divmod16
                0x0000d64a                __divhi3
                0x0000d67c                __modhi3
 .text.libgcc   0x0000d684       0x40 /usr/local/msp430/bin/../lib/gcc/msp430/4.7.0/mmpy-16/libgcc.a(_udivmod32.o)
                0x0000d684                __udivsi3
                0x0000d684                __ext_udivmod32
                0x0000d6ba                __umodsi3
 .text.libgcc   0x0000d6c4       0x4c /usr/local/msp430/bin/../lib/gcc/msp430/4.7.0/mmpy-16/libgcc.a(_divmod32.o)
                0x0000d6c4                __ext_divmod32
                0x0000d6c4                __divsi3
                0x0000d706                __modsi3
 .text.printf   0x0000d710       0x10 /usr/local/msp430/bin/../lib/gcc/msp430/4.7.0/../../../../msp430/lib/mmpy-16/libc.a(printf.o)
                0x0000d710                printf
 .text.append   0x0000d720       0x22 /usr/local/msp430/bin/../lib/gcc/msp430/4.7.0/../../../../msp430/lib/mmpy-16/libc.a(sprintf.o)
 .text.call_vuprintf
                0x0000d742       0x3a /usr/local/msp430/bin/../lib/gcc/msp430/4.7.0/../../../../msp430/lib/mmpy-16/libc.a(sprintf.o)
 .text.snprintf
                0x0000d77c       0x1a /usr/local/msp430/bin/../lib/gcc/msp430/4.7.0/../../../../msp430/lib/mmpy-16/libc.a(sprintf.o)
                0x0000d77c                snprintf
 .text.print_field
                0x0000d796      0x194 /usr/local/msp430/bin/../lib/gcc/msp430/4.7.0/../../../../msp430/lib/mmpy-16/libc.a(vuprintf.o)
 .text.vuprintf
                0x0000d92a      0x63c /usr/local/msp430/bin/../lib/gcc/msp430/4.7.0/../../../../msp430/lib/mmpy-16/libc.a(vuprintf.o)
                0x0000d92a                vuprintf
 .text.puts     0x0000df66       0x2c /usr/local/msp430/bin/../lib/gcc/msp430/4.7.0/../../../../msp430/lib/mmpy-16/libc.a(puts.o)
                0x0000df66                puts
 .text.rand     0x0000df92       0x26 /usr/local/msp430/bin/../lib/gcc/msp430/4.7.0/../../../../msp430/lib/mmpy-16/libc.a(rand.o)
                0x0000df92                rand
 .text.srand    0x0000dfb8        0xa /usr/local/msp430/bin/../lib/gcc/msp430/4.7.0/../../../../msp430/lib/mmpy-16/libc.a(rand.o)
                0x0000dfb8                srand
 .text.strcmp   0x0000dfc2       0x1e /usr/local/msp430/bin/../lib/gcc/msp430/4.7.0/../../../../msp430/lib/mmpy-16/libc.a(strcmp.o)
                0x0000dfc2                strcmp
 .text.memcmp   0x0000dfe0       0x30 /usr/local/msp430/bin/../lib/gcc/msp430/4.7.0/../../../../msp430/lib/mmpy-16/libc.a(memcmp.o)
                0x0000dfe0                memcmp
 .text.memcpy   0x0000e010       0xfa /usr/local/msp430/bin/../lib/gcc/msp430/4.7.0/../../../../msp430/lib/mmpy-16/libc.a(memcpy.o)
                0x0000e010                memcpy
 .text.memmove  0x0000e10a       0xfa /usr/local/msp430/bin/../lib/gcc/msp430/4.7.0/../../../../msp430/lib/mmpy-16/libc.a(memmove.o)
                0x0000e10a                memmove
 .text.memset   0x0000e204       0x6a /usr/local/msp430/bin/../lib/gcc/msp430/4.7.0/../../../../msp430/lib/mmpy-16/libc.a(memset.o)
                0x0000e204                memset
 .text.libgcc   0x0000e26e       0xf0 /usr/local/msp430/bin/../lib/gcc/msp430/4.7.0/mmpy-16/libgcc.a(_udivmod64.o)
                0x0000e26e                __xabi_udivmod64
                0x0000e2cc                __udivdi3
                0x0000e2f2                __umoddi3
                0x0000e320                __udivmoddi4
 .text.crt0     0x0000e35e        0x2 /usr/local/msp430/bin/../lib/gcc/msp430/4.7.0/mmpy-16/libcrt0.a(_unexpected_.o)
                0x0000e35e                _unexpected_
 *(.near.text .near.text.*)

.rodata         0x0000e360      0x511
                0x0000e360                . = ALIGN (0x2)
 *(.rodata .rodata.* .gnu.linkonce.r.*)
 .rodata        0x0000e360       0x7a udp-client.o
                0x0000e3ca                autostart_processes
 .rodata        0x0000e3da       0xd2 build/sky/obj/contiki-main.o
 .rodata        0x0000e4ac       0x31 build/sky/contiki-ng-sky.a(platform.o)
 .rodata        0x0000e4dd        0xf build/sky/contiki-ng-sky.a(ctimer.o)
 .rodata        0x0000e4ec        0xc build/sky/contiki-ng-sky.a(etimer.o)
 .rodata        0x0000e4f8       0xb2 build/sky/contiki-ng-sky.a(log.o)
 .rodata        0x0000e5aa        0x8 build/sky/contiki-ng-sky.a(linkaddr.o)
                0x0000e5aa                linkaddr_null
 .rodata        0x0000e5b2       0x14 build/sky/contiki-ng-sky.a(csma.o)
                0x0000e5b8                csma_driver
 .rodata        0x0000e5c6       0x26 build/sky/contiki-ng-sky.a(sicslowpan.o)
                0x0000e5d2                sicslowpan_driver
                0x0000e5da                llprefix
                0x0000e5dc                unc_mxconf
                0x0000e5e0                unc_ctxconf
                0x0000e5e4                unc_llconf
 .rodata        0x0000e5ec       0x13 build/sky/contiki-ng-sky.a(simple-udp.o)
 .rodata        0x0000e5ff        0xd build/sky/contiki-ng-sky.a(tcpip.o)
 .rodata        0x0000e60c       0x2d build/sky/contiki-ng-sky.a(uiplib.o)
 *fill*         0x0000e639        0x1 00
 .rodata        0x0000e63a       0x32 build/sky/contiki-ng-sky.a(rpl.o)
                0x0000e644                rpl_lite_driver
 .rodata        0x0000e66c       0xe0 build/sky/contiki-ng-sky.a(rpl-dag.o)
 .rodata        0x0000e74c       0x74 build/sky/contiki-ng-sky.a(rpl-icmp6-malic)
 .rodata        0x0000e7c0       0x15 build/sky/contiki-ng-sky.a(rpl-timers.o)
 *fill*         0x0000e7d5        0x1 00
 .rodata        0x0000e7d6       0x10 build/sky/contiki-ng-sky.a(button-sensor.o)
                0x0000e7de                button_sensor
 .rodata        0x0000e7e6        0x8 build/sky/contiki-ng-sky.a(sensors.o)
 *fill*         0x0000e7ee        0x2 00
 .rodata.get_value
                0x0000e7f0       0x24 build/sky/contiki-ng-sky.a(cc2420.o)
 .rodata.set_value
                0x0000e814       0x10 build/sky/contiki-ng-sky.a(cc2420.o)
 .rodata        0x0000e824       0x3e build/sky/contiki-ng-sky.a(cc2420.o)
                0x0000e824                cc2420_aes_128_driver
                0x0000e828                cc2420_driver
 .rodata        0x0000e862        0x6 build/sky/contiki-ng-sky.a(framer-802154.o)
                0x0000e862                framer_802154
 .rodata        0x0000e868        0x2 build/sky/contiki-ng-sky.a(frame802154.o)
 .rodata.vuprintf
                0x0000e86a        0x7 /usr/local/msp430/bin/../lib/gcc/msp430/4.7.0/../../../../msp430/lib/mmpy-16/libc.a(vuprintf.o)
 *(.near.rodata .near.rodata.*)
                0x0000e872                . = ALIGN (0x2)
                0x0000e872                _etext = .

.data           0x00001100      0x14a load address 0x0000e872
                0x00001100                . = ALIGN (0x2)
                0x00001100                __data_start = .
 *(.data .data.* .gnu.linkonce.d.*)
 .data          0x00001100        0xa udp-client.o
                0x00001100                udp_client_process
 .data          0x0000110a        0x2 build/sky/contiki-ng-sky.a(msp430.o)
 .data          0x0000110c        0xa build/sky/contiki-ng-sky.a(ctimer.o)
                0x0000110c                ctimer_process
 .data          0x00001116        0xa build/sky/contiki-ng-sky.a(etimer.o)
                0x00001116                etimer_process
 .data          0x00001120       0x4a build/sky/contiki-ng-sky.a(log.o)
                0x00001120                all_modules
                0x00001168                curr_log_level_main
 .data          0x0000116a       0x10 build/sky/contiki-ng-sky.a(queuebuf.o)
 .data          0x0000117a       0x18 build/sky/contiki-ng-sky.a(csma-output.o)
 .data          0x00001192        0xa build/sky/contiki-ng-sky.a(simple-udp.o)
                0x00001192                simple_udp_process
 .data          0x0000119c        0xa build/sky/contiki-ng-sky.a(tcpip.o)
                0x0000119c                tcpip_process
 .data          0x000011a6        0x8 build/sky/contiki-ng-sky.a(uip-ds6-nbr.o)
 .data          0x000011ae        0x8 build/sky/contiki-ng-sky.a(uip-ds6-route.o)
 .data          0x000011b6        0xc build/sky/contiki-ng-sky.a(uip-icmp6.o)
 .data          0x000011c2        0x6 build/sky/contiki-ng-sky.a(uip-nd6.o)
 .data          0x000011c8       0x18 build/sky/contiki-ng-sky.a(rpl-icmp6.o)
 .data          0x000011e0       0x16 build/sky/contiki-ng-sky.a(rpl-icmp6-malic)
 .data          0x000011f6       0x12 build/sky/contiki-ng-sky.a(rpl-mrhof.o)
                0x000011f6                rpl_mrhof
 .data          0x00001208        0xa build/sky/contiki-ng-sky.a(rpl-neighbor.o)
                0x00001208                rpl_neighbors
 .data          0x00001212        0x4 build/sky/contiki-ng-sky.a(contiki-sky-pla)
                0x00001212                sensors
 .data          0x00001216        0xa build/sky/contiki-ng-sky.a(sensors.o)
                0x00001216                sensors_process
 .data          0x00001220        0xc build/sky/contiki-ng-sky.a(cc2420.o)
                0x00001220                cc2420_process
 .data          0x0000122c        0x8 build/sky/contiki-ng-sky.a(link-stats.o)
 .data          0x00001234        0x8 build/sky/contiki-ng-sky.a(nbr-table.o)
 .data          0x0000123c        0x8 build/sky/contiki-ng-sky.a(uip-sr.o)
 .data          0x00001244        0x2 build/sky/contiki-ng-sky.a(frame802154.o)
 .data.next     0x00001246        0x4 /usr/local/msp430/bin/../lib/gcc/msp430/4.7.0/../../../../msp430/lib/mmpy-16/libc.a(rand.o)
 *(.near.data .near.data.*)
                0x0000124a                . = ALIGN (0x2)
                0x0000124a                _edata = .
                0x0000e872                __data_load_start = LOADADDR (.data)
                0x0000014a                __data_size = SIZEOF (.data)

.bss            0x0000124a     0x1dd6 load address 0x0000e9bc
                0x0000124a                __bss_start = .
 *(.bss .bss.*)
 .bss           0x0000124a       0x4a udp-client.o
 .bss           0x00001294        0x8 build/sky/contiki-ng-sky.a(platform.o)
 .bss           0x0000129c        0xa build/sky/contiki-ng-sky.a(clock.o)
 .bss           0x000012a6        0x2 build/sky/contiki-ng-sky.a(watchdog.o)
 .bss           0x000012a8        0x4 build/sky/contiki-ng-sky.a(ctimer.o)
 .bss           0x000012ac        0x6 build/sky/contiki-ng-sky.a(etimer.o)
 .bss           0x000012b2       0x14 build/sky/contiki-ng-sky.a(log.o)
                0x000012b2                curr_log_level_lwm2m
                0x000012b4                curr_log_level_coap
                0x000012b6                curr_log_level_6top
                0x000012b8                curr_log_level_framer
                0x000012ba                curr_log_level_mac
                0x000012bc                curr_log_level_nullnet
                0x000012be                curr_log_level_6lowpan
                0x000012c0                curr_log_level_ipv6
                0x000012c2                curr_log_level_tcpip
                0x000012c4                curr_log_level_rpl
 .bss           0x000012c6        0x2 build/sky/contiki-ng-sky.a(node-id.o)
                0x000012c6                node_id
 .bss           0x000012c8       0xc8 build/sky/contiki-ng-sky.a(process.o)
                0x000012c8                process_current
                0x000012ca                process_list
 .bss           0x00001390        0x2 build/sky/contiki-ng-sky.a(rtimer.o)
 .bss           0x00001392        0x2 build/sky/contiki-ng-sky.a(netstack.o)
 .bss           0x00001394      0x580 build/sky/contiki-ng-sky.a(queuebuf.o)
 .bss           0x00001914       0xbe build/sky/contiki-ng-sky.a(csma-output.o)
 .bss           0x000019d2      0x6e0 build/sky/contiki-ng-sky.a(sicslowpan.o)
 .bss           0x000020b2       0xf1 build/sky/contiki-ng-sky.a(simple-udp.o)
 *fill*         0x000021a3        0x1 00
 .bss           0x000021a4        0xc build/sky/contiki-ng-sky.a(tcpip.o)
 .bss           0x000021b0        0x8 build/sky/contiki-ng-sky.a(uip6.o)
                0x000021b0                uip_last_proto
                0x000021b2                uip_ext_len
                0x000021b4                uip_ext_bitmap
 .bss           0x000021b8       0x18 build/sky/contiki-ng-sky.a(uipbuf.o)
 .bss           0x000021d0       0x28 build/sky/contiki-ng-sky.a(uip-ds6.o)
 .bss           0x000021f8      0x120 build/sky/contiki-ng-sky.a(uip-ds6-nbr.o)
 .bss           0x00002318       0x3c build/sky/contiki-ng-sky.a(uip-ds6-route.o)
 .bss           0x00002354       0x14 build/sky/contiki-ng-sky.a(uip-icmp6.o)
 .bss           0x00002368        0x8 build/sky/contiki-ng-sky.a(uip-nd6.o)
 .bss           0x00002370        0x1 build/sky/contiki-ng-sky.a(rpl.o)
 *fill*         0x00002371        0x1 00
 .bss           0x00002372       0x12 build/sky/contiki-ng-sky.a(rpl-dag-root.o)
 .bss           0x00002384      0x260 build/sky/contiki-ng-sky.a(rpl-icmp6-malic)
 .bss           0x000025e4       0x80 build/sky/contiki-ng-sky.a(rpl-neighbor.o)
 .bss           0x00002664       0x28 build/sky/contiki-ng-sky.a(rpl-timers.o)
 .bss           0x0000268c        0x8 build/sky/contiki-ng-sky.a(button-sensor.o)
 .bss           0x00002694        0x6 build/sky/contiki-ng-sky.a(sensors.o)
 .bss           0x0000269a       0x10 build/sky/contiki-ng-sky.a(cc2420.o)
 .bss           0x000026aa       0x9a build/sky/contiki-ng-sky.a(uart1.o)
 .bss           0x00002744       0xa0 build/sky/contiki-ng-sky.a(link-stats.o)
 .bss           0x000027e4       0xe4 build/sky/contiki-ng-sky.a(nbr-table.o)
 .bss           0x000028c8       0x86 build/sky/contiki-ng-sky.a(packetbuf.o)
 .bss           0x0000294e       0xe0 build/sky/contiki-ng-sky.a(mac-sequence.o)
 .bss           0x00002a2e        0x2 build/sky/contiki-ng-sky.a(framer-802154.o)
 .bss           0x00002a30      0x134 build/sky/contiki-ng-sky.a(uip-sr.o)
 .bss           0x00002b64        0x8 build/sky/contiki-ng-sky.a(rpl-nbr-policy.)
 .bss.destination_
                0x00002b6c        0x2 /usr/local/msp430/bin/../lib/gcc/msp430/4.7.0/../../../../msp430/lib/mmpy-16/libc.a(sprintf.o)
 .bss.available_
                0x00002b6e        0x2 /usr/local/msp430/bin/../lib/gcc/msp430/4.7.0/../../../../msp430/lib/mmpy-16/libc.a(sprintf.o)
 *(.near.bss .near.bss.*)
 *(COMMON)
 COMMON         0x00002b70        0xe udp-client.o
                0x00002b70                selector
                0x00002b72                icmp_dropped
                0x00002b74                malicious_nodes_list
                0x00002b76                icmp_forwarded
                0x00002b78                legitimate_nodes_list
                0x00002b7a                flood
                0x00002b7c                dis_sent_flood
 COMMON         0x00002b7e        0x2 build/sky/contiki-ng-sky.a(msp430.o)
                0x00002b7e                msp430_dco_required
 COMMON         0x00002b80        0x8 build/sky/contiki-ng-sky.a(linkaddr.o)
                0x00002b80                linkaddr_node_addr
 COMMON         0x00002b88        0x1 build/sky/contiki-ng-sky.a(tcpip.o)
                0x00002b88                tcpip_event
 *fill*         0x00002b89        0x1 00
 COMMON         0x00002b8a      0x1d6 build/sky/contiki-ng-sky.a(uip6.o)
                0x00002b8a                uip_len
                0x00002b8c                uip_sappdata
                0x00002b8e                uip_lladdr
                0x00002b96                uip_aligned_buf
                0x00002c86                uip_flags
                0x00002c88                uip_udp_conn
                0x00002c8a                uip_appdata
                0x00002c8c                uip_conn
                0x00002c8e                uip_slen
                0x00002c90                uip_udp_conns
 COMMON         0x00002d60      0x15c build/sky/contiki-ng-sky.a(uip-ds6.o)
                0x00002d60                uip_ds6_timer_ra
                0x00002d68                uip_ds6_if
                0x00002e54                uip_ds6_netif_addr_list_offset
                0x00002e55                uip_ds6_addr_size
                0x00002e56                uip_ds6_prefix_list
                0x00002eb0                uip_ds6_timer_periodic
 COMMON         0x00002ebc       0x10 build/sky/contiki-ng-sky.a(rpl.o)
                0x00002ebc                rpl_multicast_addr
 COMMON         0x00002ecc       0xfe build/sky/contiki-ng-sky.a(rpl-dag.o)
                0x00002ecc                curr_instance
 COMMON         0x00002fca        0x2 build/sky/contiki-ng-sky.a(contiki-sky-pla)
                0x00002fca                sensors_flags
 COMMON         0x00002fcc        0x8 build/sky/contiki-ng-sky.a(ds2411.o)
                0x00002fcc                ds2411_id
 COMMON         0x00002fd4        0x1 build/sky/contiki-ng-sky.a(sensors.o)
                0x00002fd4                sensors_event
 *fill*         0x00002fd5        0x1 00
 COMMON         0x00002fd6        0xc build/sky/contiki-ng-sky.a(cc2420.o)
                0x00002fd6                cc2420_last_rssi
                0x00002fd8                cc2420_sfd_start_time
                0x00002fda                cc2420_last_correlation
                0x00002fdc                cc2420_authority_level_of_sender
                0x00002fde                cc2420_sfd_counter
                0x00002fe0                cc2420_sfd_end_time
 COMMON         0x00002fe2       0x14 build/sky/contiki-ng-sky.a(link-stats.o)
                0x00002fe2                periodic_timer
 COMMON         0x00002ff6       0x2a build/sky/contiki-ng-sky.a(packetbuf.o)
                0x00002ff6                packetbuf_addrs
                0x00003006                packetbuf_attrs
                0x00003020                . = ALIGN (0x2)
                0x00003020                __bss_end = .
                0x00001dd6                __bss_size = SIZEOF (.bss)

.noinit         0x00003020        0x2 load address 0x0000e9bc
                0x00003020                . = ALIGN (0x2)
                0x00003020                __noinit_start = .
 *(.noinit .noinit.*)
 .noinit.crt0   0x00003020        0x2 /usr/local/msp430/bin/../lib/gcc/msp430/4.7.0/mmpy-16/libcrt0.a(__watchdog_support.o)
                0x00003020                __wdt_clear_value
                0x00003022                . = ALIGN (0x2)
                0x00003022                __noinit_end = .
                0x00003022                . = ALIGN (0x2)
                0x00003022                _end = .

.infomem        0x00001000        0x0
                0x00001000                . = ALIGN (0x2)
 *(.infomem .infomem.*)

.infomemnobits  0x00001000        0x0
                0x00001000                . = ALIGN (0x2)
 *(.infomemnobits .infomemnobits.*)

.infoa          0x00001080        0x0
                0x00001080                . = ALIGN (0x2)
 *(.infoa .infoa.*)

.infob          0x00001000        0x0
                0x00001000                . = ALIGN (0x2)
 *(.infob .infob.*)

.infoc          0x00000000        0x0
                0x00000000                . = ALIGN (0x2)
 *(.infoc .infoc.*)

.infod          0x00000000        0x0
                0x00000000                . = ALIGN (0x2)
 *(.infod .infod.*)

.vectors        0x0000ffe0       0x20
                0x0000ffe0                __vectors_start = .
 *(.vectors*)
 .vectors       0x0000ffe0       0x20 /usr/local/msp430/bin/../lib/gcc/msp430/4.7.0/mmpy-16/crt0ivtbl16.o
                0x0000ffe0                __ivtbl_16
                0x00010000                _vectors_end = .

.fartext        0x00000000        0x0
                0x00000000                . = ALIGN (0x2)
 *(.fartext .fartext.*)

.far.text       0x00000000        0x0
                0x00000000                . = ALIGN (0x2)
 *(.far.text .far.text.*)

.far.rodata     0x00000000        0x0
                0x00000000                . = ALIGN (0x2)
 *(.far.rodata .far.rodata.*)
                0x00000000                . = ALIGN (0x2)
                0x00000000                _efartext = .

.far.data       0x00000000        0x0
                0x00000000                . = ALIGN (0x2)
                0x00000000                __far_data_start = .
 *(.far.data .far.data.*)
                0x00000000                . = ALIGN (0x2)
                0x00000000                _efardata = .
                0x00000000                __far_data_load_start = LOADADDR (.far.data)
                0x00000000                __far_data_size = SIZEOF (.far.data)

.far.bss        0x00000000        0x0
                0x00000000                . = ALIGN (0x2)
                0x00000000                __far_bss_start = .
 *(.far.bss .far.bss.*)
                0x00000000                . = ALIGN (0x2)
                0x00000000                __far_bss_end = .
                0x00000000                __far_bss_size = SIZEOF (.far.bss)
                0x00000000                . = ALIGN (0x2)
                0x00000000                _far_end = .

.profiler
 *(.profiler)

.stab           0x00000000    0x2a630
 *(.stab)
 .stab          0x00000000     0x135c udp-client.o
 .stab          0x0000135c      0xdd4 build/sky/obj/contiki-main.o
                               0x1b48 (size before relaxing)
 .stab          0x00002130      0x228 build/sky/contiki-ng-sky.a(uart1-putchar.o)
                                0x6fc (size before relaxing)
 .stab          0x00002358     0x12f0 build/sky/contiki-ng-sky.a(platform.o)
                               0x1920 (size before relaxing)
 .stab          0x00003648      0x714 build/sky/contiki-ng-sky.a(msp430.o)
                                0xa38 (size before relaxing)
 .stab          0x00003d5c      0x900 build/sky/contiki-ng-sky.a(clock.o)
                                0xc48 (size before relaxing)
 .stab          0x0000465c      0x468 build/sky/contiki-ng-sky.a(leds.o)
                                0x81c (size before relaxing)
 .stab          0x00004ac4      0x384 build/sky/contiki-ng-sky.a(leds-arch.o)
                                0x738 (size before relaxing)
 .stab          0x00004e48      0x3b4 build/sky/contiki-ng-sky.a(watchdog.o)
                                0x6d8 (size before relaxing)
 .stab          0x000051fc      0x2ac build/sky/contiki-ng-sky.a(autostart.o)
                                0x5d0 (size before relaxing)
 .stab          0x000054a8      0x804 build/sky/contiki-ng-sky.a(ctimer.o)
                                0xb40 (size before relaxing)
 .stab          0x00005cac      0x270 build/sky/contiki-ng-sky.a(energest.o)
                                0x5b8 (size before relaxing)
 .stab          0x00005f1c      0xa98 build/sky/contiki-ng-sky.a(etimer.o)
                                0xdbc (size before relaxing)
 .stab          0x000069b4      0x84c build/sky/contiki-ng-sky.a(log.o)
                                0xfe4 (size before relaxing)
 .stab          0x00007200      0x264 build/sky/contiki-ng-sky.a(node-id.o)
                                0x9c0 (size before relaxing)
 .stab          0x00007464      0xb88 build/sky/contiki-ng-sky.a(process.o)
                               0x1098 (size before relaxing)
 .stab          0x00007fec      0x348 build/sky/contiki-ng-sky.a(rtimer.o)
                                0x66c (size before relaxing)
 .stab          0x00008334      0x3b4 build/sky/contiki-ng-sky.a(timer.o)
                                0x6d8 (size before relaxing)
 .stab          0x000086e8      0x954 build/sky/contiki-ng-sky.a(list.o)
                                0xe40 (size before relaxing)
 .stab          0x0000903c      0x288 build/sky/contiki-ng-sky.a(random.o)
                                0x774 (size before relaxing)
 .stab          0x000092c4      0x30c build/sky/contiki-ng-sky.a(linkaddr.o)
                                0x7f8 (size before relaxing)
 .stab          0x000095d0      0x4a4 build/sky/contiki-ng-sky.a(netstack.o)
                                0x8ac (size before relaxing)
 .stab          0x00009a74      0x930 build/sky/contiki-ng-sky.a(queuebuf.o)
                               0x1674 (size before relaxing)
 .stab          0x0000a3a4      0x8ac build/sky/contiki-ng-sky.a(csma.o)
                                0xe64 (size before relaxing)
 .stab          0x0000ac50      0xc30 build/sky/contiki-ng-sky.a(csma-output.o)
                               0x1584 (size before relaxing)
 .stab          0x0000b880      0x3b4 build/sky/contiki-ng-sky.a(csma-security.o)
                                0xcf0 (size before relaxing)
 .stab          0x0000bc34     0x2cf4 build/sky/contiki-ng-sky.a(sicslowpan.o)
                               0x38d0 (size before relaxing)
 .stab          0x0000e928      0x75c build/sky/contiki-ng-sky.a(simple-udp.o)
                               0x13ec (size before relaxing)
 .stab          0x0000f084      0xbc4 build/sky/contiki-ng-sky.a(tcpip.o)
                               0x189c (size before relaxing)
 .stab          0x0000fc48     0x1578 build/sky/contiki-ng-sky.a(uip6.o)
                               0x213c (size before relaxing)
 .stab          0x000111c0      0xad4 build/sky/contiki-ng-sky.a(uipbuf.o)
                               0x1218 (size before relaxing)
 .stab          0x00011c94     0x1500 build/sky/contiki-ng-sky.a(uip-ds6.o)
                               0x2124 (size before relaxing)
 .stab          0x00013194      0xe28 build/sky/contiki-ng-sky.a(uip-ds6-nbr.o)
                               0x16d4 (size before relaxing)
 .stab          0x00013fbc      0xaa4 build/sky/contiki-ng-sky.a(uip-ds6-route.o)
                               0x15fc (size before relaxing)
 .stab          0x00014a60      0xabc build/sky/contiki-ng-sky.a(uip-icmp6.o)
                               0x16a4 (size before relaxing)
 .stab          0x0001551c      0x858 build/sky/contiki-ng-sky.a(uiplib.o)
                                0xff0 (size before relaxing)
 .stab          0x00015d74      0x720 build/sky/contiki-ng-sky.a(uip-nd6.o)
                               0x12cc (size before relaxing)
 .stab          0x00016494      0x420 build/sky/contiki-ng-sky.a(uip-udp-packet.)
                                0xbf4 (size before relaxing)
 .stab          0x000168b4      0xe10 build/sky/contiki-ng-sky.a(rpl.o)
                               0x1a28 (size before relaxing)
 .stab          0x000176c4     0x1650 build/sky/contiki-ng-sky.a(rpl-dag.o)
                               0x23c4 (size before relaxing)
 .stab          0x00018d14      0x78c build/sky/contiki-ng-sky.a(rpl-dag-root.o)
                               0x15d8 (size before relaxing)
 .stab          0x000194a0      0xed0 build/sky/contiki-ng-sky.a(rpl-ext-header.)
                               0x1cc8 (size before relaxing)
 .stab          0x0001a370     0x14a0 build/sky/contiki-ng-sky.a(rpl-icmp6.o)
                               0x2268 (size before relaxing)
 .stab          0x0001b810      0x9d8 build/sky/contiki-ng-sky.a(rpl-icmp6-malic)
                               0x14a0 (size before relaxing)
 .stab          0x0001c1e8      0x900 build/sky/contiki-ng-sky.a(rpl-mrhof.o)
                               0x1650 (size before relaxing)
 .stab          0x0001cae8     0x114c build/sky/contiki-ng-sky.a(rpl-neighbor.o)
                               0x1e90 (size before relaxing)
 .stab          0x0001dc34     0x129c build/sky/contiki-ng-sky.a(rpl-timers.o)
                               0x2004 (size before relaxing)
 .stab          0x0001eed0      0x240 build/sky/contiki-ng-sky.a(contiki-sky-pla)
                                0x564 (size before relaxing)
 .stab          0x0001f110      0x42c build/sky/contiki-ng-sky.a(button-sensor.o)
                                0x768 (size before relaxing)
 .stab          0x0001f53c      0x600 build/sky/contiki-ng-sky.a(ds2411.o)
                                0xaec (size before relaxing)
 .stab          0x0001fb3c      0x990 build/sky/contiki-ng-sky.a(xmem.o)
                                0xe88 (size before relaxing)
 .stab          0x000204cc      0x684 build/sky/contiki-ng-sky.a(sensors.o)
                                0xb70 (size before relaxing)
 .stab          0x00020b50     0x2754 build/sky/contiki-ng-sky.a(cc2420.o)
                               0x2f40 (size before relaxing)
 .stab          0x000232a4      0x3fc build/sky/contiki-ng-sky.a(cc2420-arch.o)
                               0x10f8 (size before relaxing)
 .stab          0x000236a0      0x5e8 build/sky/contiki-ng-sky.a(uart1.o)
                                0x90c (size before relaxing)
 .stab          0x00023c88      0x378 build/sky/contiki-ng-sky.a(rtimer-arch.o)
                                0x69c (size before relaxing)
 .stab          0x00024000      0x42c build/sky/contiki-ng-sky.a(stimer.o)
                                0x768 (size before relaxing)
 .stab          0x0002442c      0x5ac build/sky/contiki-ng-sky.a(memb.o)
                                0xab0 (size before relaxing)
 .stab          0x000249d8      0x894 build/sky/contiki-ng-sky.a(link-stats.o)
                               0x1248 (size before relaxing)
 .stab          0x0002526c      0xf84 build/sky/contiki-ng-sky.a(nbr-table.o)
                               0x15f0 (size before relaxing)
 .stab          0x000261f0      0xc0c build/sky/contiki-ng-sky.a(packetbuf.o)
                               0x195c (size before relaxing)
 .stab          0x00026dfc      0x4bc build/sky/contiki-ng-sky.a(mac.o)
                                0xad4 (size before relaxing)
 .stab          0x000272b8      0x540 build/sky/contiki-ng-sky.a(mac-sequence.o)
                               0x1290 (size before relaxing)
 .stab          0x000277f8      0x798 build/sky/contiki-ng-sky.a(framer-802154.o)
                                0xff0 (size before relaxing)
 .stab          0x00027f90      0xcd8 build/sky/contiki-ng-sky.a(uip-sr.o)
                               0x17c4 (size before relaxing)
 .stab          0x00028c68      0x5e8 build/sky/contiki-ng-sky.a(rpl-nbr-policy.)
                               0x1308 (size before relaxing)
 .stab          0x00029250      0x258 build/sky/contiki-ng-sky.a(spi-legacy.o)
                                0x57c (size before relaxing)
 .stab          0x000294a8     0x1188 build/sky/contiki-ng-sky.a(frame802154.o)
                               0x1938 (size before relaxing)

.stabstr        0x00000000    0x1cff4
 *(.stabstr)
 .stabstr       0x00000000    0x1cff4 udp-client.o

.stab.excl
 *(.stab.excl)

.stab.exclstr
 *(.stab.exclstr)

.stab.index
 *(.stab.index)

.stab.indexstr
 *(.stab.indexstr)

.comment        0x00000000       0x30
 *(.comment)
 .comment       0x00000000       0x30 udp-client.o
                                 0x31 (size before relaxing)
 .comment       0x00000000       0x31 build/sky/obj/contiki-main.o
 .comment       0x00000000       0x31 build/sky/contiki-ng-sky.a(uart1-putchar.o)
 .comment       0x00000000       0x31 build/sky/contiki-ng-sky.a(platform.o)
 .comment       0x00000000       0x31 build/sky/contiki-ng-sky.a(msp430.o)
 .comment       0x00000000       0x31 build/sky/contiki-ng-sky.a(clock.o)
 .comment       0x00000000       0x31 build/sky/contiki-ng-sky.a(leds.o)
 .comment       0x00000000       0x31 build/sky/contiki-ng-sky.a(leds-arch.o)
 .comment       0x00000000       0x31 build/sky/contiki-ng-sky.a(watchdog.o)
 .comment       0x00000000       0x31 build/sky/contiki-ng-sky.a(autostart.o)
 .comment       0x00000000       0x31 build/sky/contiki-ng-sky.a(ctimer.o)
 .comment       0x00000000       0x31 build/sky/contiki-ng-sky.a(energest.o)
 .comment       0x00000000       0x31 build/sky/contiki-ng-sky.a(etimer.o)
 .comment       0x00000000       0x31 build/sky/contiki-ng-sky.a(log.o)
 .comment       0x00000000       0x31 build/sky/contiki-ng-sky.a(node-id.o)
 .comment       0x00000000       0x31 build/sky/contiki-ng-sky.a(process.o)
 .comment       0x00000000       0x31 build/sky/contiki-ng-sky.a(rtimer.o)
 .comment       0x00000000       0x31 build/sky/contiki-ng-sky.a(timer.o)
 .comment       0x00000000       0x31 build/sky/contiki-ng-sky.a(list.o)
 .comment       0x00000000       0x31 build/sky/contiki-ng-sky.a(random.o)
 .comment       0x00000000       0x31 build/sky/contiki-ng-sky.a(linkaddr.o)
 .comment       0x00000000       0x31 build/sky/contiki-ng-sky.a(netstack.o)
 .comment       0x00000000       0x31 build/sky/contiki-ng-sky.a(queuebuf.o)
 .comment       0x00000000       0x31 build/sky/contiki-ng-sky.a(csma.o)
 .comment       0x00000000       0x31 build/sky/contiki-ng-sky.a(csma-output.o)
 .comment       0x00000000       0x31 build/sky/contiki-ng-sky.a(csma-security.o)
 .comment       0x00000000       0x31 build/sky/contiki-ng-sky.a(sicslowpan.o)
 .comment       0x00000000       0x31 build/sky/contiki-ng-sky.a(simple-udp.o)
 .comment       0x00000000       0x31 build/sky/contiki-ng-sky.a(tcpip.o)
 .comment       0x00000000       0x31 build/sky/contiki-ng-sky.a(uip6.o)
 .comment       0x00000000       0x31 build/sky/contiki-ng-sky.a(uipbuf.o)
 .comment       0x00000000       0x31 build/sky/contiki-ng-sky.a(uip-ds6.o)
 .comment       0x00000000       0x31 build/sky/contiki-ng-sky.a(uip-ds6-nbr.o)
 .comment       0x00000000       0x31 build/sky/contiki-ng-sky.a(uip-ds6-route.o)
 .comment       0x00000000       0x31 build/sky/contiki-ng-sky.a(uip-icmp6.o)
 .comment       0x00000000       0x31 build/sky/contiki-ng-sky.a(uiplib.o)
 .comment       0x00000000       0x31 build/sky/contiki-ng-sky.a(uip-nd6.o)
 .comment       0x00000000       0x31 build/sky/contiki-ng-sky.a(uip-udp-packet.)
 .comment       0x00000000       0x31 build/sky/contiki-ng-sky.a(rpl.o)
 .comment       0x00000000       0x31 build/sky/contiki-ng-sky.a(rpl-dag.o)
 .comment       0x00000000       0x31 build/sky/contiki-ng-sky.a(rpl-dag-root.o)
 .comment       0x00000000       0x31 build/sky/contiki-ng-sky.a(rpl-ext-header.)
 .comment       0x00000000       0x31 build/sky/contiki-ng-sky.a(rpl-icmp6.o)
 .comment       0x00000000       0x31 build/sky/contiki-ng-sky.a(rpl-icmp6-malic)
 .comment       0x00000000       0x31 build/sky/contiki-ng-sky.a(rpl-mrhof.o)
 .comment       0x00000000       0x31 build/sky/contiki-ng-sky.a(rpl-neighbor.o)
 .comment       0x00000000       0x31 build/sky/contiki-ng-sky.a(rpl-timers.o)
 .comment       0x00000000       0x31 build/sky/contiki-ng-sky.a(contiki-sky-pla)
 .comment       0x00000000       0x31 build/sky/contiki-ng-sky.a(button-sensor.o)
 .comment       0x00000000       0x31 build/sky/contiki-ng-sky.a(ds2411.o)
 .comment       0x00000000       0x31 build/sky/contiki-ng-sky.a(xmem.o)
 .comment       0x00000000       0x31 build/sky/contiki-ng-sky.a(sensors.o)
 .comment       0x00000000       0x31 build/sky/contiki-ng-sky.a(cc2420.o)
 .comment       0x00000000       0x31 build/sky/contiki-ng-sky.a(cc2420-arch.o)
 .comment       0x00000000       0x31 build/sky/contiki-ng-sky.a(uart1.o)
 .comment       0x00000000       0x31 build/sky/contiki-ng-sky.a(rtimer-arch.o)
 .comment       0x00000000       0x31 build/sky/contiki-ng-sky.a(stimer.o)
 .comment       0x00000000       0x31 build/sky/contiki-ng-sky.a(memb.o)
 .comment       0x00000000       0x31 build/sky/contiki-ng-sky.a(link-stats.o)
 .comment       0x00000000       0x31 build/sky/contiki-ng-sky.a(nbr-table.o)
 .comment       0x00000000       0x31 build/sky/contiki-ng-sky.a(packetbuf.o)
 .comment       0x00000000       0x31 build/sky/contiki-ng-sky.a(mac.o)
 .comment       0x00000000       0x31 build/sky/contiki-ng-sky.a(mac-sequence.o)
 .comment       0x00000000       0x31 build/sky/contiki-ng-sky.a(framer-802154.o)
 .comment       0x00000000       0x31 build/sky/contiki-ng-sky.a(uip-sr.o)
 .comment       0x00000000       0x31 build/sky/contiki-ng-sky.a(rpl-nbr-policy.)
 .comment       0x00000000       0x31 build/sky/contiki-ng-sky.a(spi-legacy.o)
 .comment       0x00000000       0x31 build/sky/contiki-ng-sky.a(frame802154.o)
 .comment       0x00000000       0x31 /usr/local/msp430/bin/../lib/gcc/msp430/4.7.0/../../../../msp430/lib/mmpy-16/libc.a(printf.o)
 .comment       0x00000000       0x31 /usr/local/msp430/bin/../lib/gcc/msp430/4.7.0/../../../../msp430/lib/mmpy-16/libc.a(sprintf.o)
 .comment       0x00000000       0x31 /usr/local/msp430/bin/../lib/gcc/msp430/4.7.0/../../../../msp430/lib/mmpy-16/libc.a(vuprintf.o)
 .comment       0x00000000       0x31 /usr/local/msp430/bin/../lib/gcc/msp430/4.7.0/../../../../msp430/lib/mmpy-16/libc.a(puts.o)
 .comment       0x00000000       0x31 /usr/local/msp430/bin/../lib/gcc/msp430/4.7.0/../../../../msp430/lib/mmpy-16/libc.a(rand.o)
 .comment       0x00000000       0x31 /usr/local/msp430/bin/../lib/gcc/msp430/4.7.0/../../../../msp430/lib/mmpy-16/libc.a(strcmp.o)
 .comment       0x00000000       0x31 /usr/local/msp430/bin/../lib/gcc/msp430/4.7.0/../../../../msp430/lib/mmpy-16/libc.a(memcmp.o)
 .comment       0x00000000       0x31 /usr/local/msp430/bin/../lib/gcc/msp430/4.7.0/../../../../msp430/lib/mmpy-16/libc.a(memcpy.o)
 .comment       0x00000000       0x31 /usr/local/msp430/bin/../lib/gcc/msp430/4.7.0/../../../../msp430/lib/mmpy-16/libc.a(memmove.o)
 .comment       0x00000000       0x31 /usr/local/msp430/bin/../lib/gcc/msp430/4.7.0/../../../../msp430/lib/mmpy-16/libc.a(memset.o)

.debug
 *(.debug)

.line
 *(.line)

.debug_srcinfo
 *(.debug_srcinfo)

.debug_sfnames
 *(.debug_sfnames)

.debug_aranges  0x00000000      0x1f0
 *(.debug_aranges)
 .debug_aranges
                0x00000000       0x14 /usr/local/msp430/bin/../lib/gcc/msp430/4.7.0/mmpy-16/crt0ivtbl16.o
 .debug_aranges
                0x00000014       0x14 /usr/local/msp430/bin/../lib/gcc/msp430/4.7.0/mmpy-16/libgcc.a(_mulsi3.o)
 .debug_aranges
                0x00000028       0x14 /usr/local/msp430/bin/../lib/gcc/msp430/4.7.0/mmpy-16/libgcc.a(_udivmod16.o)
 .debug_aranges
                0x0000003c       0x14 /usr/local/msp430/bin/../lib/gcc/msp430/4.7.0/mmpy-16/libgcc.a(_divmod16.o)
 .debug_aranges
                0x00000050       0x14 /usr/local/msp430/bin/../lib/gcc/msp430/4.7.0/mmpy-16/libgcc.a(_udivmod32.o)
 .debug_aranges
                0x00000064       0x14 /usr/local/msp430/bin/../lib/gcc/msp430/4.7.0/mmpy-16/libgcc.a(_divmod32.o)
 .debug_aranges
                0x00000078       0x18 /usr/local/msp430/bin/../lib/gcc/msp430/4.7.0/../../../../msp430/lib/mmpy-16/libc.a(printf.o)
 .debug_aranges
                0x00000090       0x28 /usr/local/msp430/bin/../lib/gcc/msp430/4.7.0/../../../../msp430/lib/mmpy-16/libc.a(sprintf.o)
 .debug_aranges
                0x000000b8       0x18 /usr/local/msp430/bin/../lib/gcc/msp430/4.7.0/../../../../msp430/lib/mmpy-16/libc.a(vuprintf.o)
 .debug_aranges
                0x000000d0       0x14 /usr/local/msp430/bin/../lib/gcc/msp430/4.7.0/../../../../msp430/lib/mmpy-16/libc.a(puts.o)
 .debug_aranges
                0x000000e4       0x1c /usr/local/msp430/bin/../lib/gcc/msp430/4.7.0/../../../../msp430/lib/mmpy-16/libc.a(rand.o)
 .debug_aranges
                0x00000100       0x14 /usr/local/msp430/bin/../lib/gcc/msp430/4.7.0/../../../../msp430/lib/mmpy-16/libc.a(strcmp.o)
 .debug_aranges
                0x00000114       0x14 /usr/local/msp430/bin/../lib/gcc/msp430/4.7.0/../../../../msp430/lib/mmpy-16/libc.a(memcmp.o)
 .debug_aranges
                0x00000128       0x14 /usr/local/msp430/bin/../lib/gcc/msp430/4.7.0/../../../../msp430/lib/mmpy-16/libc.a(memcpy.o)
 .debug_aranges
                0x0000013c       0x14 /usr/local/msp430/bin/../lib/gcc/msp430/4.7.0/../../../../msp430/lib/mmpy-16/libc.a(memmove.o)
 .debug_aranges
                0x00000150       0x14 /usr/local/msp430/bin/../lib/gcc/msp430/4.7.0/../../../../msp430/lib/mmpy-16/libc.a(memset.o)
 .debug_aranges
                0x00000164       0x14 /usr/local/msp430/bin/../lib/gcc/msp430/4.7.0/mmpy-16/libgcc.a(_udivmod64.o)
 .debug_aranges
                0x00000178       0x14 /usr/local/msp430/bin/../lib/gcc/msp430/4.7.0/mmpy-16/libcrt0.a(__watchdog_support.o)
 .debug_aranges
                0x0000018c       0x14 /usr/local/msp430/bin/../lib/gcc/msp430/4.7.0/mmpy-16/libcrt0.a(__init_stack.o)
 .debug_aranges
                0x000001a0       0x14 /usr/local/msp430/bin/../lib/gcc/msp430/4.7.0/mmpy-16/libcrt0.a(_copy_data.o)
 .debug_aranges
                0x000001b4       0x14 /usr/local/msp430/bin/../lib/gcc/msp430/4.7.0/mmpy-16/libcrt0.a(_clear_bss.o)
 .debug_aranges
                0x000001c8       0x14 /usr/local/msp430/bin/../lib/gcc/msp430/4.7.0/mmpy-16/libcrt0.a(_endless_loop__.o)
 .debug_aranges
                0x000001dc       0x14 /usr/local/msp430/bin/../lib/gcc/msp430/4.7.0/mmpy-16/libcrt0.a(_unexpected_.o)

.debug_pubnames
 *(.debug_pubnames)

.debug_info     0x00000000     0x191c
 *(.debug_info)
 .debug_info    0x00000000       0x9b /usr/local/msp430/bin/../lib/gcc/msp430/4.7.0/mmpy-16/crt0ivtbl16.o
 .debug_info    0x0000009b       0x98 /usr/local/msp430/bin/../lib/gcc/msp430/4.7.0/mmpy-16/libgcc.a(_mulsi3.o)
 .debug_info    0x00000133       0x98 /usr/local/msp430/bin/../lib/gcc/msp430/4.7.0/mmpy-16/libgcc.a(_udivmod16.o)
 .debug_info    0x000001cb       0x98 /usr/local/msp430/bin/../lib/gcc/msp430/4.7.0/mmpy-16/libgcc.a(_divmod16.o)
 .debug_info    0x00000263       0x98 /usr/local/msp430/bin/../lib/gcc/msp430/4.7.0/mmpy-16/libgcc.a(_udivmod32.o)
 .debug_info    0x000002fb       0x98 /usr/local/msp430/bin/../lib/gcc/msp430/4.7.0/mmpy-16/libgcc.a(_divmod32.o)
 .debug_info    0x00000393      0x16e /usr/local/msp430/bin/../lib/gcc/msp430/4.7.0/../../../../msp430/lib/mmpy-16/libc.a(printf.o)
 .debug_info    0x00000501      0x321 /usr/local/msp430/bin/../lib/gcc/msp430/4.7.0/../../../../msp430/lib/mmpy-16/libc.a(sprintf.o)
 .debug_info    0x00000822      0x5d4 /usr/local/msp430/bin/../lib/gcc/msp430/4.7.0/../../../../msp430/lib/mmpy-16/libc.a(vuprintf.o)
 .debug_info    0x00000df6       0xc7 /usr/local/msp430/bin/../lib/gcc/msp430/4.7.0/../../../../msp430/lib/mmpy-16/libc.a(puts.o)
 .debug_info    0x00000ebd      0x146 /usr/local/msp430/bin/../lib/gcc/msp430/4.7.0/../../../../msp430/lib/mmpy-16/libc.a(rand.o)
 .debug_info    0x00001003       0xa9 /usr/local/msp430/bin/../lib/gcc/msp430/4.7.0/../../../../msp430/lib/mmpy-16/libc.a(strcmp.o)
 .debug_info    0x000010ac       0xe5 /usr/local/msp430/bin/../lib/gcc/msp430/4.7.0/../../../../msp430/lib/mmpy-16/libc.a(memcmp.o)
 .debug_info    0x00001191      0x12c /usr/local/msp430/bin/../lib/gcc/msp430/4.7.0/../../../../msp430/lib/mmpy-16/libc.a(memcpy.o)
 .debug_info    0x000012bd      0x12c /usr/local/msp430/bin/../lib/gcc/msp430/4.7.0/../../../../msp430/lib/mmpy-16/libc.a(memmove.o)
 .debug_info    0x000013e9      0x117 /usr/local/msp430/bin/../lib/gcc/msp430/4.7.0/../../../../msp430/lib/mmpy-16/libc.a(memset.o)
 .debug_info    0x00001500       0x98 /usr/local/msp430/bin/../lib/gcc/msp430/4.7.0/mmpy-16/libgcc.a(_udivmod64.o)
 .debug_info    0x00001598       0x96 /usr/local/msp430/bin/../lib/gcc/msp430/4.7.0/mmpy-16/libcrt0.a(__watchdog_support.o)
 .debug_info    0x0000162e       0x96 /usr/local/msp430/bin/../lib/gcc/msp430/4.7.0/mmpy-16/libcrt0.a(__init_stack.o)
 .debug_info    0x000016c4       0x96 /usr/local/msp430/bin/../lib/gcc/msp430/4.7.0/mmpy-16/libcrt0.a(_copy_data.o)
 .debug_info    0x0000175a       0x96 /usr/local/msp430/bin/../lib/gcc/msp430/4.7.0/mmpy-16/libcrt0.a(_clear_bss.o)
 .debug_info    0x000017f0       0x96 /usr/local/msp430/bin/../lib/gcc/msp430/4.7.0/mmpy-16/libcrt0.a(_endless_loop__.o)
 .debug_info    0x00001886       0x96 /usr/local/msp430/bin/../lib/gcc/msp430/4.7.0/mmpy-16/libcrt0.a(_unexpected_.o)
 *(.gnu.linkonce.wi.*)

.debug_abbrev   0x00000000      0xa20
 *(.debug_abbrev)
 .debug_abbrev  0x00000000       0x14 /usr/local/msp430/bin/../lib/gcc/msp430/4.7.0/mmpy-16/crt0ivtbl16.o
 .debug_abbrev  0x00000014       0x14 /usr/local/msp430/bin/../lib/gcc/msp430/4.7.0/mmpy-16/libgcc.a(_mulsi3.o)
 .debug_abbrev  0x00000028       0x14 /usr/local/msp430/bin/../lib/gcc/msp430/4.7.0/mmpy-16/libgcc.a(_udivmod16.o)
 .debug_abbrev  0x0000003c       0x14 /usr/local/msp430/bin/../lib/gcc/msp430/4.7.0/mmpy-16/libgcc.a(_divmod16.o)
 .debug_abbrev  0x00000050       0x14 /usr/local/msp430/bin/../lib/gcc/msp430/4.7.0/mmpy-16/libgcc.a(_udivmod32.o)
 .debug_abbrev  0x00000064       0x14 /usr/local/msp430/bin/../lib/gcc/msp430/4.7.0/mmpy-16/libgcc.a(_divmod32.o)
 .debug_abbrev  0x00000078       0xfa /usr/local/msp430/bin/../lib/gcc/msp430/4.7.0/../../../../msp430/lib/mmpy-16/libc.a(printf.o)
 .debug_abbrev  0x00000172      0x14c /usr/local/msp430/bin/../lib/gcc/msp430/4.7.0/../../../../msp430/lib/mmpy-16/libc.a(sprintf.o)
 .debug_abbrev  0x000002be      0x23e /usr/local/msp430/bin/../lib/gcc/msp430/4.7.0/../../../../msp430/lib/mmpy-16/libc.a(vuprintf.o)
 .debug_abbrev  0x000004fc       0xa3 /usr/local/msp430/bin/../lib/gcc/msp430/4.7.0/../../../../msp430/lib/mmpy-16/libc.a(puts.o)
 .debug_abbrev  0x0000059f       0xfb /usr/local/msp430/bin/../lib/gcc/msp430/4.7.0/../../../../msp430/lib/mmpy-16/libc.a(rand.o)
 .debug_abbrev  0x0000069a       0x65 /usr/local/msp430/bin/../lib/gcc/msp430/4.7.0/../../../../msp430/lib/mmpy-16/libc.a(strcmp.o)
 .debug_abbrev  0x000006ff       0x9e /usr/local/msp430/bin/../lib/gcc/msp430/4.7.0/../../../../msp430/lib/mmpy-16/libc.a(memcmp.o)
 .debug_abbrev  0x0000079d       0xab /usr/local/msp430/bin/../lib/gcc/msp430/4.7.0/../../../../msp430/lib/mmpy-16/libc.a(memcpy.o)
 .debug_abbrev  0x00000848       0xab /usr/local/msp430/bin/../lib/gcc/msp430/4.7.0/../../../../msp430/lib/mmpy-16/libc.a(memmove.o)
 .debug_abbrev  0x000008f3       0xa1 /usr/local/msp430/bin/../lib/gcc/msp430/4.7.0/../../../../msp430/lib/mmpy-16/libc.a(memset.o)
 .debug_abbrev  0x00000994       0x14 /usr/local/msp430/bin/../lib/gcc/msp430/4.7.0/mmpy-16/libgcc.a(_udivmod64.o)
 .debug_abbrev  0x000009a8       0x14 /usr/local/msp430/bin/../lib/gcc/msp430/4.7.0/mmpy-16/libcrt0.a(__watchdog_support.o)
 .debug_abbrev  0x000009bc       0x14 /usr/local/msp430/bin/../lib/gcc/msp430/4.7.0/mmpy-16/libcrt0.a(__init_stack.o)
 .debug_abbrev  0x000009d0       0x14 /usr/local/msp430/bin/../lib/gcc/msp430/4.7.0/mmpy-16/libcrt0.a(_copy_data.o)
 .debug_abbrev  0x000009e4       0x14 /usr/local/msp430/bin/../lib/gcc/msp430/4.7.0/mmpy-16/libcrt0.a(_clear_bss.o)
 .debug_abbrev  0x000009f8       0x14 /usr/local/msp430/bin/../lib/gcc/msp430/4.7.0/mmpy-16/libcrt0.a(_endless_loop__.o)
 .debug_abbrev  0x00000a0c       0x14 /usr/local/msp430/bin/../lib/gcc/msp430/4.7.0/mmpy-16/libcrt0.a(_unexpected_.o)

.debug_line     0x00000000      0xf61
 *(.debug_line)
 .debug_line    0x00000000       0x64 /usr/local/msp430/bin/../lib/gcc/msp430/4.7.0/mmpy-16/crt0ivtbl16.o
 .debug_line    0x00000064       0x77 /usr/local/msp430/bin/../lib/gcc/msp430/4.7.0/mmpy-16/libgcc.a(_mulsi3.o)
 .debug_line    0x000000db       0x70 /usr/local/msp430/bin/../lib/gcc/msp430/4.7.0/mmpy-16/libgcc.a(_udivmod16.o)
 .debug_line    0x0000014b       0x7b /usr/local/msp430/bin/../lib/gcc/msp430/4.7.0/mmpy-16/libgcc.a(_divmod16.o)
 .debug_line    0x000001c6       0x7f /usr/local/msp430/bin/../lib/gcc/msp430/4.7.0/mmpy-16/libgcc.a(_udivmod32.o)
 .debug_line    0x00000245       0x84 /usr/local/msp430/bin/../lib/gcc/msp430/4.7.0/mmpy-16/libgcc.a(_divmod32.o)
 .debug_line    0x000002c9       0xa9 /usr/local/msp430/bin/../lib/gcc/msp430/4.7.0/../../../../msp430/lib/mmpy-16/libc.a(printf.o)
 .debug_line    0x00000372      0x107 /usr/local/msp430/bin/../lib/gcc/msp430/4.7.0/../../../../msp430/lib/mmpy-16/libc.a(sprintf.o)
 .debug_line    0x00000479      0x30a /usr/local/msp430/bin/../lib/gcc/msp430/4.7.0/../../../../msp430/lib/mmpy-16/libc.a(vuprintf.o)
 .debug_line    0x00000783       0x65 /usr/local/msp430/bin/../lib/gcc/msp430/4.7.0/../../../../msp430/lib/mmpy-16/libc.a(puts.o)
 .debug_line    0x000007e8       0x68 /usr/local/msp430/bin/../lib/gcc/msp430/4.7.0/../../../../msp430/lib/mmpy-16/libc.a(rand.o)
 .debug_line    0x00000850       0x49 /usr/local/msp430/bin/../lib/gcc/msp430/4.7.0/../../../../msp430/lib/mmpy-16/libc.a(strcmp.o)
 .debug_line    0x00000899       0x8f /usr/local/msp430/bin/../lib/gcc/msp430/4.7.0/../../../../msp430/lib/mmpy-16/libc.a(memcmp.o)
 .debug_line    0x00000928      0x118 /usr/local/msp430/bin/../lib/gcc/msp430/4.7.0/../../../../msp430/lib/mmpy-16/libc.a(memcpy.o)
 .debug_line    0x00000a40      0x117 /usr/local/msp430/bin/../lib/gcc/msp430/4.7.0/../../../../msp430/lib/mmpy-16/libc.a(memmove.o)
 .debug_line    0x00000b57       0xf2 /usr/local/msp430/bin/../lib/gcc/msp430/4.7.0/../../../../msp430/lib/mmpy-16/libc.a(memset.o)
 .debug_line    0x00000c49       0xc9 /usr/local/msp430/bin/../lib/gcc/msp430/4.7.0/mmpy-16/libgcc.a(_udivmod64.o)
 .debug_line    0x00000d12       0x62 /usr/local/msp430/bin/../lib/gcc/msp430/4.7.0/mmpy-16/libcrt0.a(__watchdog_support.o)
 .debug_line    0x00000d74       0x60 /usr/local/msp430/bin/../lib/gcc/msp430/4.7.0/mmpy-16/libcrt0.a(__init_stack.o)
 .debug_line    0x00000dd4       0x66 /usr/local/msp430/bin/../lib/gcc/msp430/4.7.0/mmpy-16/libcrt0.a(_copy_data.o)
 .debug_line    0x00000e3a       0x66 /usr/local/msp430/bin/../lib/gcc/msp430/4.7.0/mmpy-16/libcrt0.a(_clear_bss.o)
 .debug_line    0x00000ea0       0x61 /usr/local/msp430/bin/../lib/gcc/msp430/4.7.0/mmpy-16/libcrt0.a(_endless_loop__.o)
 .debug_line    0x00000f01       0x60 /usr/local/msp430/bin/../lib/gcc/msp430/4.7.0/mmpy-16/libcrt0.a(_unexpected_.o)

.debug_frame    0x00000000      0x26e
 *(.debug_frame)
 .debug_frame   0x00000000       0x2a /usr/local/msp430/bin/../lib/gcc/msp430/4.7.0/../../../../msp430/lib/mmpy-16/libc.a(printf.o)
 .debug_frame   0x0000002a       0x68 /usr/local/msp430/bin/../lib/gcc/msp430/4.7.0/../../../../msp430/lib/mmpy-16/libc.a(sprintf.o)
 .debug_frame   0x00000092       0xa0 /usr/local/msp430/bin/../lib/gcc/msp430/4.7.0/../../../../msp430/lib/mmpy-16/libc.a(vuprintf.o)
 .debug_frame   0x00000132       0x24 /usr/local/msp430/bin/../lib/gcc/msp430/4.7.0/../../../../msp430/lib/mmpy-16/libc.a(puts.o)
 .debug_frame   0x00000156       0x3c /usr/local/msp430/bin/../lib/gcc/msp430/4.7.0/../../../../msp430/lib/mmpy-16/libc.a(rand.o)
 .debug_frame   0x00000192       0x1e /usr/local/msp430/bin/../lib/gcc/msp430/4.7.0/../../../../msp430/lib/mmpy-16/libc.a(strcmp.o)
 .debug_frame   0x000001b0       0x28 /usr/local/msp430/bin/../lib/gcc/msp430/4.7.0/../../../../msp430/lib/mmpy-16/libc.a(memcmp.o)
 .debug_frame   0x000001d8       0x32 /usr/local/msp430/bin/../lib/gcc/msp430/4.7.0/../../../../msp430/lib/mmpy-16/libc.a(memcpy.o)
 .debug_frame   0x0000020a       0x32 /usr/local/msp430/bin/../lib/gcc/msp430/4.7.0/../../../../msp430/lib/mmpy-16/libc.a(memmove.o)
 .debug_frame   0x0000023c       0x32 /usr/local/msp430/bin/../lib/gcc/msp430/4.7.0/../../../../msp430/lib/mmpy-16/libc.a(memset.o)

.debug_str      0x00000000      0x46f
 *(.debug_str)
 .debug_str     0x00000000       0xe5 /usr/local/msp430/bin/../lib/gcc/msp430/4.7.0/../../../../msp430/lib/mmpy-16/libc.a(printf.o)
                                0x136 (size before relaxing)
 .debug_str     0x000000e5       0x75 /usr/local/msp430/bin/../lib/gcc/msp430/4.7.0/../../../../msp430/lib/mmpy-16/libc.a(sprintf.o)
                                0x19b (size before relaxing)
 .debug_str     0x0000015a      0x218 /usr/local/msp430/bin/../lib/gcc/msp430/4.7.0/../../../../msp430/lib/mmpy-16/libc.a(vuprintf.o)
                                0x381 (size before relaxing)
 .debug_str     0x00000372       0x1d /usr/local/msp430/bin/../lib/gcc/msp430/4.7.0/../../../../msp430/lib/mmpy-16/libc.a(puts.o)
                                 0xfb (size before relaxing)
 .debug_str     0x0000038f       0x2f /usr/local/msp430/bin/../lib/gcc/msp430/4.7.0/../../../../msp430/lib/mmpy-16/libc.a(rand.o)
                                0x112 (size before relaxing)
 .debug_str     0x000003be       0x19 /usr/local/msp430/bin/../lib/gcc/msp430/4.7.0/../../../../msp430/lib/mmpy-16/libc.a(strcmp.o)
                                 0xf7 (size before relaxing)
 .debug_str     0x000003d7       0x19 /usr/local/msp430/bin/../lib/gcc/msp430/4.7.0/../../../../msp430/lib/mmpy-16/libc.a(memcmp.o)
                                 0xfe (size before relaxing)
 .debug_str     0x000003f0       0x3e /usr/local/msp430/bin/../lib/gcc/msp430/4.7.0/../../../../msp430/lib/mmpy-16/libc.a(memcpy.o)
                                0x12c (size before relaxing)
 .debug_str     0x0000042e       0x1b /usr/local/msp430/bin/../lib/gcc/msp430/4.7.0/../../../../msp430/lib/mmpy-16/libc.a(memmove.o)
                                0x12e (size before relaxing)
 .debug_str     0x00000449       0x26 /usr/local/msp430/bin/../lib/gcc/msp430/4.7.0/../../../../msp430/lib/mmpy-16/libc.a(memset.o)
                                0x12a (size before relaxing)

.debug_loc      0x00000000      0xf1b
 *(.debug_loc)
 .debug_loc     0x00000000       0x4c /usr/local/msp430/bin/../lib/gcc/msp430/4.7.0/../../../../msp430/lib/mmpy-16/libc.a(printf.o)
 .debug_loc     0x0000004c      0x13a /usr/local/msp430/bin/../lib/gcc/msp430/4.7.0/../../../../msp430/lib/mmpy-16/libc.a(sprintf.o)
 .debug_loc     0x00000186      0x7fa /usr/local/msp430/bin/../lib/gcc/msp430/4.7.0/../../../../msp430/lib/mmpy-16/libc.a(vuprintf.o)
 .debug_loc     0x00000980       0x26 /usr/local/msp430/bin/../lib/gcc/msp430/4.7.0/../../../../msp430/lib/mmpy-16/libc.a(puts.o)
 .debug_loc     0x000009a6       0x4f /usr/local/msp430/bin/../lib/gcc/msp430/4.7.0/../../../../msp430/lib/mmpy-16/libc.a(rand.o)
 .debug_loc     0x000009f5       0x32 /usr/local/msp430/bin/../lib/gcc/msp430/4.7.0/../../../../msp430/lib/mmpy-16/libc.a(strcmp.o)
 .debug_loc     0x00000a27       0x4d /usr/local/msp430/bin/../lib/gcc/msp430/4.7.0/../../../../msp430/lib/mmpy-16/libc.a(memcmp.o)
 .debug_loc     0x00000a74      0x1e3 /usr/local/msp430/bin/../lib/gcc/msp430/4.7.0/../../../../msp430/lib/mmpy-16/libc.a(memcpy.o)
 .debug_loc     0x00000c57      0x1e3 /usr/local/msp430/bin/../lib/gcc/msp430/4.7.0/../../../../msp430/lib/mmpy-16/libc.a(memmove.o)
 .debug_loc     0x00000e3a       0xe1 /usr/local/msp430/bin/../lib/gcc/msp430/4.7.0/../../../../msp430/lib/mmpy-16/libc.a(memset.o)

.debug_macinfo
 *(.debug_macinfo)

.debug_pubtypes
 *(.debug_pubtypes)

.debug_ranges   0x00000000       0x8c
 *(.debug_ranges)
 .debug_ranges  0x00000000        0xc /usr/local/msp430/bin/../lib/gcc/msp430/4.7.0/../../../../msp430/lib/mmpy-16/libc.a(printf.o)
 .debug_ranges  0x0000000c       0x1c /usr/local/msp430/bin/../lib/gcc/msp430/4.7.0/../../../../msp430/lib/mmpy-16/libc.a(sprintf.o)
 .debug_ranges  0x00000028       0x24 /usr/local/msp430/bin/../lib/gcc/msp430/4.7.0/../../../../msp430/lib/mmpy-16/libc.a(vuprintf.o)
 .debug_ranges  0x0000004c        0x8 /usr/local/msp430/bin/../lib/gcc/msp430/4.7.0/../../../../msp430/lib/mmpy-16/libc.a(puts.o)
 .debug_ranges  0x00000054       0x10 /usr/local/msp430/bin/../lib/gcc/msp430/4.7.0/../../../../msp430/lib/mmpy-16/libc.a(rand.o)
 .debug_ranges  0x00000064        0x8 /usr/local/msp430/bin/../lib/gcc/msp430/4.7.0/../../../../msp430/lib/mmpy-16/libc.a(strcmp.o)
 .debug_ranges  0x0000006c        0x8 /usr/local/msp430/bin/../lib/gcc/msp430/4.7.0/../../../../msp430/lib/mmpy-16/libc.a(memcmp.o)
 .debug_ranges  0x00000074        0x8 /usr/local/msp430/bin/../lib/gcc/msp430/4.7.0/../../../../msp430/lib/mmpy-16/libc.a(memcpy.o)
 .debug_ranges  0x0000007c        0x8 /usr/local/msp430/bin/../lib/gcc/msp430/4.7.0/../../../../msp430/lib/mmpy-16/libc.a(memmove.o)
 .debug_ranges  0x00000084        0x8 /usr/local/msp430/bin/../lib/gcc/msp430/4.7.0/../../../../msp430/lib/mmpy-16/libc.a(memset.o)
                0x00003900                PROVIDE (__stack, (ORIGIN (ram) + 0x2800))
                0x0000e872                __data_start_rom = _etext
                0x0000e9bc                __data_end_rom = (_etext + SIZEOF (.data))
OUTPUT(build/sky/udp-client.sky elf32-msp430)
